# SymbolsHelper-Confirmed: 4:16.04.3 arm64 armel armhf powerpc ppc64el s390x
libKF5MessageViewer.so.5 libkf5messageviewer5 #MINVER#
 _ZN10QByteArray7reserveEi@Base 4:16.04.2
 _ZN13MessageViewer10NodeHelper11addTempFileERK7QString@Base 4:15.12
 _ZN13MessageViewer10NodeHelper11fixEncodingERK7QString@Base 4:15.12
 _ZN13MessageViewer10NodeHelper11qt_metacallEN11QMetaObject4CallEiPPv@Base 4:15.12
 _ZN13MessageViewer10NodeHelper11qt_metacastEPKc@Base 4:15.12
 _ZN13MessageViewer10NodeHelper12cleanSubjectEPN5KMime7MessageE@Base 4:15.12
 _ZN13MessageViewer10NodeHelper12cleanSubjectEPN5KMime7MessageERK11QStringListbRK7QString@Base 4:15.12
 _ZN13MessageViewer10NodeHelper12codecForNameERK10QByteArray@Base 4:15.12
 _ZN13MessageViewer10NodeHelper12fromAsStringEPN5KMime7ContentE@Base 4:15.12
 _ZN13MessageViewer10NodeHelper12magicSetTypeEPN5KMime7ContentEb@Base 4:15.12
 _ZN13MessageViewer10NodeHelper12partMetaDataEPN5KMime7ContentE@Base 4:15.12
 _ZN13MessageViewer10NodeHelper13createTempDirERK7QString@Base 4:15.12
 _ZN13MessageViewer10NodeHelper15encodingForNameERK7QString@Base 4:15.12
 _ZN13MessageViewer10NodeHelper15mergeExtraNodesEPN5KMime7ContentE@Base 4:15.12
 _ZN13MessageViewer10NodeHelper15removeTempFilesEv@Base 4:15.12
 _ZN13MessageViewer10NodeHelper15replacePrefixesERK7QStringRK11QStringListbS3_@Base 4:15.12
 _ZN13MessageViewer10NodeHelper15setPartMetaDataEPN5KMime7ContentERKNS_12PartMetaDataE@Base 4:15.12
 _ZN13MessageViewer10NodeHelper16setNodeProcessedEPN5KMime7ContentEb@Base 4:15.12
 _ZN13MessageViewer10NodeHelper16setOverrideCodecEPN5KMime7ContentEPK10QTextCodec@Base 4:15.12
 _ZN13MessageViewer10NodeHelper16staticMetaObjectE@Base 4:15.12
 _ZN13MessageViewer10NodeHelper17setSignatureStateEPN5KMime7ContentENS_19KMMsgSignatureStateE@Base 4:15.12
 _ZN13MessageViewer10NodeHelper18attachExtraContentEPN5KMime7ContentES3_@Base 4:15.12
 _ZN13MessageViewer10NodeHelper18setBodyPartMementoEPN5KMime7ContentERK10QByteArrayPNS_9Interface15BodyPartMementoE@Base 4:15.12
 _ZN13MessageViewer10NodeHelper18setEncryptionStateEPN5KMime7ContentENS_20KMMsgEncryptionStateE@Base 4:15.12
 _ZN13MessageViewer10NodeHelper18setNodeUnprocessedEPN5KMime7ContentEb@Base 4:15.12
 _ZN13MessageViewer10NodeHelper18supportedEncodingsEb@Base 4:15.12
 _ZN13MessageViewer10NodeHelper18unencryptedMessageERK14QSharedPointerIN5KMime7MessageEE@Base 4:15.12
 _ZN13MessageViewer10NodeHelper19cleanFromExtraNodesEPN5KMime7ContentE@Base 4:15.12
 _ZN13MessageViewer10NodeHelper19forceCleanTempFilesEv@Base 4:15.12
 _ZN13MessageViewer10NodeHelper19tempFileUrlFromNodeEPKN5KMime7ContentE@Base 4:15.12
 _ZN13MessageViewer10NodeHelper19writeNodeToTempFileEPN5KMime7ContentE@Base 4:15.12
 _ZN13MessageViewer10NodeHelper21attachmentDisplayInfoEPN5KMime7ContentE@Base 4:15.12
 _ZN13MessageViewer10NodeHelper22setNodeDisplayedHiddenEPN5KMime7ContentEb@Base 4:15.12
 _ZN13MessageViewer10NodeHelper23isInEncapsulatedMessageEPN5KMime7ContentE@Base 4:15.12
 _ZN13MessageViewer10NodeHelper23messageWithExtraContentEPN5KMime7ContentE@Base 4:15.12
 _ZN13MessageViewer10NodeHelper24setNodeDisplayedEmbeddedEPN5KMime7ContentEb@Base 4:15.12
 _ZN13MessageViewer10NodeHelper25unencryptedMessage_helperEPN5KMime7ContentER10QByteArraybi@Base 4:15.12
 _ZN13MessageViewer10NodeHelper5clearEv@Base 4:15.12
 _ZN13MessageViewer10NodeHelper5codecEPN5KMime7ContentE@Base 4:15.12
 _ZN13MessageViewer10NodeHelper6updateENS_10UpdateModeE@Base 4:16.04.0
 _ZN13MessageViewer10NodeHelper7charsetEPN5KMime7ContentE@Base 4:15.12
 _ZN13MessageViewer10NodeHelper8fileNameEPKN5KMime7ContentE@Base 4:15.12
 _ZN13MessageViewer10NodeHelper8iconNameEPN5KMime7ContentEi@Base 4:15.12
 _ZN13MessageViewer10NodeHelperC1Ev@Base 4:15.12
 _ZN13MessageViewer10NodeHelperC2Ev@Base 4:15.12
 _ZN13MessageViewer10NodeHelperD0Ev@Base 4:15.12
 _ZN13MessageViewer10NodeHelperD1Ev@Base 4:15.12
 _ZN13MessageViewer10NodeHelperD2Ev@Base 4:15.12
 _ZN13MessageViewer11EmptySource10htmlWriterEv@Base 4:15.12
 _ZN13MessageViewer11EmptySource11setHtmlModeENS_4Util8HtmlModeE@Base 4:15.12
 _ZN13MessageViewer11EmptySource12sourceObjectEv@Base 4:15.12
 _ZN13MessageViewer11EmptySource13overrideCodecEv@Base 4:15.12
 _ZN13MessageViewer11EmptySource18attachmentStrategyEv@Base 4:15.12
 _ZN13MessageViewer11EmptySource18setAllowDecryptionEb@Base 4:15.12
 _ZN13MessageViewer11EmptySource19createMessageHeaderEPN5KMime7MessageE@Base 4:15.12
 _ZN13MessageViewer11EmptySource24bodyPartFormatterFactoryEv@Base 4:16.04.0
 _ZN13MessageViewer11EmptySource9cssHelperEv@Base 4:15.12
 _ZN13MessageViewer11EmptySourceC1Ev@Base 4:15.12
 _ZN13MessageViewer11EmptySourceC2Ev@Base 4:15.12
 _ZN13MessageViewer11EmptySourceD0Ev@Base 4:15.12
 _ZN13MessageViewer11EmptySourceD1Ev@Base 4:15.12
 _ZN13MessageViewer11EmptySourceD2Ev@Base 4:15.12
 _ZN13MessageViewer11FindBarBase10autoSearchERK7QString@Base 4:16.04.0
 _ZN13MessageViewer11FindBarBase10searchTextEbb@Base 4:16.04.0
 _ZN13MessageViewer11FindBarBase11hideFindBarEv@Base 4:16.04.0
 _ZN13MessageViewer11FindBarBase11optionsMenuEv@Base 4:16.04.0
 _ZN13MessageViewer11FindBarBase11qt_metacallEN11QMetaObject4CallEiPPv@Base 4:16.04.0
 _ZN13MessageViewer11FindBarBase11qt_metacastEPKc@Base 4:16.04.0
 _ZN13MessageViewer11FindBarBase13setFoundMatchEb@Base 4:16.04.0
 _ZN13MessageViewer11FindBarBase14slotSearchTextEbb@Base 4:16.04.0
 _ZN13MessageViewer11FindBarBase15addToCompletionERK7QString@Base 4:16.04.0
 _ZN13MessageViewer11FindBarBase15clearSelectionsEv@Base 4:16.04.0
 _ZN13MessageViewer11FindBarBase15slotClearSearchEv@Base 4:16.04.0
 _ZN13MessageViewer11FindBarBase15updateHighLightEb@Base 4:16.04.0
 _ZN13MessageViewer11FindBarBase16staticMetaObjectE@Base 4:16.04.0
 _ZN13MessageViewer11FindBarBase17focusAndSetCursorEv@Base 4:16.04.0
 _ZN13MessageViewer11FindBarBase17updateSensitivityEb@Base 4:16.04.0
 _ZN13MessageViewer11FindBarBase22caseSensitivityChangedEb@Base 4:16.04.0
 _ZN13MessageViewer11FindBarBase23slotHighlightAllChangedEb@Base 4:16.04.0
 _ZN13MessageViewer11FindBarBase5eventEP6QEvent@Base 4:16.04.0
 _ZN13MessageViewer11FindBarBase7setTextERK7QString@Base 4:16.04.0
 _ZN13MessageViewer11FindBarBase8closeBarEv@Base 4:16.04.0
 _ZN13MessageViewer11FindBarBase8findNextEv@Base 4:16.04.0
 _ZN13MessageViewer11FindBarBase8findPrevEv@Base 4:16.04.0
 _ZN13MessageViewer11FindBarBaseC1EP7QWidget@Base 4:16.04.0
 _ZN13MessageViewer11FindBarBaseC2EP7QWidget@Base 4:16.04.0
 _ZN13MessageViewer11FindBarBaseD0Ev@Base 4:16.04.0
 _ZN13MessageViewer11FindBarBaseD1Ev@Base 4:16.04.0
 _ZN13MessageViewer11FindBarBaseD2Ev@Base 4:16.04.0
 _ZN13MessageViewer11HeaderStyle11setPrintingEb@Base 4:15.12
 _ZN13MessageViewer11HeaderStyle11setTopLevelEb@Base 4:15.12
 _ZN13MessageViewer11HeaderStyle12setVCardNameERK7QString@Base 4:15.12
 _ZN13MessageViewer11HeaderStyle13setAllowAsyncEb@Base 4:15.12
 _ZN13MessageViewer11HeaderStyle13setNodeHelperEPNS_10NodeHelperE@Base 4:15.12
 _ZN13MessageViewer11HeaderStyle14setMessagePathERK7QString@Base 4:15.12
 _ZN13MessageViewer11HeaderStyle15setSourceObjectEP7QObject@Base 4:15.12
 _ZN13MessageViewer11HeaderStyle16setMessageStatusEN7Akonadi13MessageStatusE@Base 4:15.12
 _ZN13MessageViewer11HeaderStyle17setCollectionNameERK7QString@Base 4:16.04.0
 _ZN13MessageViewer11HeaderStyle17setHeaderStrategyEPKNS_14HeaderStrategyE@Base 4:15.12
 _ZN13MessageViewer11HeaderStyle18setReadOnlyMessageEb@Base 4:16.04.0
 _ZN13MessageViewer11HeaderStyle8setThemeERKN13GrantleeTheme5ThemeE@Base 4:15.12
 _ZN13MessageViewer11HeaderStyleC1Ev@Base 4:15.12
 _ZN13MessageViewer11HeaderStyleC2Ev@Base 4:15.12
 _ZN13MessageViewer11HeaderStyleD0Ev@Base 4:15.12
 _ZN13MessageViewer11HeaderStyleD1Ev@Base 4:15.12
 _ZN13MessageViewer11HeaderStyleD2Ev@Base 4:15.12
 _ZN13MessageViewer11MailWebView10scrollDownEi@Base 4:15.12
 _ZN13MessageViewer11MailWebView10wheelEventEP11QWheelEvent@Base 4:15.12
 _ZN13MessageViewer11MailWebView11linkHoveredERK7QStringS3_S3_@Base 4:15.12
 _ZN13MessageViewer11MailWebView11qt_metacallEN11QMetaObject4CallEiPPv@Base 4:15.12
 _ZN13MessageViewer11MailWebView11qt_metacastEPKc@Base 4:15.12
 _ZN13MessageViewer11MailWebView11resizeEventEP12QResizeEvent@Base 4:16.04.0
 _ZN13MessageViewer11MailWebView12scrollPageUpEi@Base 4:15.12
 _ZN13MessageViewer11MailWebView13keyPressEventEP9QKeyEvent@Base 4:15.12
 _ZN13MessageViewer11MailWebView14clearSelectionEv@Base 4:15.12
 _ZN13MessageViewer11MailWebView14markAttachmentERK7QStringS3_@Base 4:15.12
 _ZN13MessageViewer11MailWebView14scrollPageDownEi@Base 4:15.12
 _ZN13MessageViewer11MailWebView14scrollToAnchorERK7QString@Base 4:15.12
 _ZN13MessageViewer11MailWebView15keyReleaseEventEP9QKeyEvent@Base 4:15.12
 _ZN13MessageViewer11MailWebView15slotShowDetailsEv@Base 4:15.12
 _ZN13MessageViewer11MailWebView15slotZoomChangedEd@Base 4:16.04.0
 _ZN13MessageViewer11MailWebView16replaceInnerHtmlERK7QStringRKN5boost8functionIFS1_vEEE@Base 4:15.12
 _ZN13MessageViewer11MailWebView16staticMetaObjectE@Base 4:15.12
 _ZN13MessageViewer11MailWebView17injectAttachmentsERKN5boost8functionIF7QStringvEEE@Base 4:15.12
 _ZN13MessageViewer11MailWebView17messageMayBeAScamEv@Base 4:15.12
 _ZN13MessageViewer11MailWebView21setElementByIdVisibleERK7QStringb@Base 4:15.12
 _ZN13MessageViewer11MailWebView23removeAttachmentMarkingERK7QString@Base 4:15.12
 _ZN13MessageViewer11MailWebView23slotZoomTextOnlyChangedEb@Base 4:16.04.0
 _ZN13MessageViewer11MailWebView24openBlockableItemsDialogEv@Base 4:15.12
 _ZN13MessageViewer11MailWebView24scrollToRelativePositionEd@Base 4:15.12
 _ZN13MessageViewer11MailWebView29saveMainFrameScreenshotInFileERK7QString@Base 4:15.12
 _ZN13MessageViewer11MailWebView5eventEP6QEvent@Base 4:15.12
 _ZN13MessageViewer11MailWebView8scrollUpEi@Base 4:15.12
 _ZN13MessageViewer11MailWebView9popupMenuERK4QUrlS3_RK6QPoint@Base 4:15.12
 _ZN13MessageViewer11MailWebView9scamCheckEv@Base 4:15.12
 _ZN13MessageViewer11MailWebView9selectAllEv@Base 4:15.12
 _ZN13MessageViewer11MailWebViewC1EP17KActionCollectionP7QWidget@Base 4:15.12
 _ZN13MessageViewer11MailWebViewC2EP17KActionCollectionP7QWidget@Base 4:15.12
 _ZN13MessageViewer11MailWebViewD0Ev@Base 4:15.12
 _ZN13MessageViewer11MailWebViewD1Ev@Base 4:15.12
 _ZN13MessageViewer11MailWebViewD2Ev@Base 4:15.12
 _ZN13MessageViewer12ViewerPlugin11qt_metacallEN11QMetaObject4CallEiPPv@Base 4:15.12
 _ZN13MessageViewer12ViewerPlugin11qt_metacastEPKc@Base 4:15.12
 _ZN13MessageViewer12ViewerPlugin16staticMetaObjectE@Base 4:15.12
 _ZN13MessageViewer12ViewerPluginC1EP7QObject@Base 4:15.12
 _ZN13MessageViewer12ViewerPluginC2EP7QObject@Base 4:15.12
 _ZN13MessageViewer12ViewerPluginD0Ev@Base 4:15.12
 _ZN13MessageViewer12ViewerPluginD1Ev@Base 4:15.12
 _ZN13MessageViewer12ViewerPluginD2Ev@Base 4:15.12
 _ZN13MessageViewer13CSSHelperBase11setBodyFontERK5QFont@Base 4:15.12
 _ZN13MessageViewer13CSSHelperBase12setPrintFontERK5QFont@Base 4:15.12
 _ZN13MessageViewer13CSSHelperBase20recalculatePGPColorsEv@Base 4:15.12
 _ZN13MessageViewer13CSSHelperBaseC1EPK12QPaintDevice@Base 4:15.12
 _ZN13MessageViewer13CSSHelperBaseC2EPK12QPaintDevice@Base 4:15.12
 _ZN13MessageViewer13CSSHelperBaseD0Ev@Base 4:16.04.0
 _ZN13MessageViewer13CSSHelperBaseD1Ev@Base 4:16.04.0
 _ZN13MessageViewer13CSSHelperBaseD2Ev@Base 4:16.04.0
 _ZN13MessageViewer13CreateNoteJob11noteCreatedEP4KJob@Base 4:15.12
 _ZN13MessageViewer13CreateNoteJob11noteUpdatedEP4KJob@Base 4:15.12
 _ZN13MessageViewer13CreateNoteJob11qt_metacallEN11QMetaObject4CallEiPPv@Base 4:15.12
 _ZN13MessageViewer13CreateNoteJob11qt_metacastEPKc@Base 4:15.12
 _ZN13MessageViewer13CreateNoteJob15relationCreatedEP4KJob@Base 4:15.12
 _ZN13MessageViewer13CreateNoteJob16staticMetaObjectE@Base 4:15.12
 _ZN13MessageViewer13CreateNoteJob5startEv@Base 4:15.12
 _ZN13MessageViewer13CreateNoteJobC1ERK14QSharedPointerIN5KMime7MessageEERKN7Akonadi10CollectionERKNS7_4ItemEP7QObject@Base 4:15.12
 _ZN13MessageViewer13CreateNoteJobC2ERK14QSharedPointerIN5KMime7MessageEERKN7Akonadi10CollectionERKNS7_4ItemEP7QObject@Base 4:15.12
 _ZN13MessageViewer13CreateNoteJobD0Ev@Base 4:15.12
 _ZN13MessageViewer13CreateNoteJobD1Ev@Base 4:15.12
 _ZN13MessageViewer13CreateNoteJobD2Ev@Base 4:15.12
 _ZN13MessageViewer13CreateTodoJob10createTodoEv@Base 4:15.12
 _ZN13MessageViewer13CreateTodoJob11qt_metacallEN11QMetaObject4CallEiPPv@Base 4:15.12
 _ZN13MessageViewer13CreateTodoJob11qt_metacastEPKc@Base 4:15.12
 _ZN13MessageViewer13CreateTodoJob11todoCreatedEP4KJob@Base 4:15.12
 _ZN13MessageViewer13CreateTodoJob13slotFetchDoneEP4KJob@Base 4:15.12
 _ZN13MessageViewer13CreateTodoJob15relationCreatedEP4KJob@Base 4:15.12
 _ZN13MessageViewer13CreateTodoJob16staticMetaObjectE@Base 4:15.12
 _ZN13MessageViewer13CreateTodoJob5startEv@Base 4:15.12
 _ZN13MessageViewer13CreateTodoJobC1ERK14QSharedPointerIN8KCalCore4TodoEERKN7Akonadi10CollectionERKNS7_4ItemEP7QObject@Base 4:15.12
 _ZN13MessageViewer13CreateTodoJobC2ERK14QSharedPointerIN8KCalCore4TodoEERKN7Akonadi10CollectionERKNS7_4ItemEP7QObject@Base 4:15.12
 _ZN13MessageViewer13CreateTodoJobD0Ev@Base 4:15.12
 _ZN13MessageViewer13CreateTodoJobD1Ev@Base 4:15.12
 _ZN13MessageViewer13CreateTodoJobD2Ev@Base 4:15.12
 _ZN13MessageViewer13EditorWatcher11qt_metacallEN11QMetaObject4CallEiPPv@Base 4:15.12
 _ZN13MessageViewer13EditorWatcher11qt_metacastEPKc@Base 4:15.12
 _ZN13MessageViewer13EditorWatcher12editorExitedEv@Base 4:15.12
 _ZN13MessageViewer13EditorWatcher12inotifyEventEv@Base 4:15.12
 _ZN13MessageViewer13EditorWatcher13checkEditDoneEv@Base 4:15.12
 _ZN13MessageViewer13EditorWatcher16staticMetaObjectE@Base 4:15.12
 _ZN13MessageViewer13EditorWatcher5startEv@Base 4:15.12
 _ZN13MessageViewer13EditorWatcher8editDoneEPS0_@Base 4:15.12
 _ZN13MessageViewer13EditorWatcherC1ERK4QUrlRK7QStringNS0_14OpenWithOptionEP7QObjectP7QWidget@Base 4:15.12
 _ZN13MessageViewer13EditorWatcherC2ERK4QUrlRK7QStringNS0_14OpenWithOptionEP7QObjectP7QWidget@Base 4:15.12
 _ZN13MessageViewer13EditorWatcherD0Ev@Base 4:15.12
 _ZN13MessageViewer13EditorWatcherD1Ev@Base 4:15.12
 _ZN13MessageViewer13EditorWatcherD2Ev@Base 4:15.12
 _ZN13MessageViewer13IconNameCache8instanceEv@Base 4:16.04.0
 _ZN13MessageViewer13ProcessResult10setIsImageEb@Base 4:15.12
 _ZN13MessageViewer13ProcessResult21setNeverDisplayInlineEb@Base 4:15.12
 _ZN13MessageViewer13ProcessResult23setInlineSignatureStateENS_19KMMsgSignatureStateE@Base 4:15.12
 _ZN13MessageViewer13ProcessResult24setInlineEncryptionStateENS_20KMMsgEncryptionStateE@Base 4:15.12
 _ZN13MessageViewer13ScamDetection11qt_metacallEN11QMetaObject4CallEiPPv@Base 4:15.12
 _ZN13MessageViewer13ScamDetection11qt_metacastEPKc@Base 4:15.12
 _ZN13MessageViewer13ScamDetection11showDetailsEv@Base 4:15.12
 _ZN13MessageViewer13ScamDetection16staticMetaObjectE@Base 4:15.12
 _ZN13MessageViewer13ScamDetection17messageMayBeAScamEv@Base 4:15.12
 _ZN13MessageViewer13ScamDetection8scanPageEP9QWebFrame@Base 4:15.12
 _ZN13MessageViewer13ScamDetection9scanFrameERK11QWebElementR7QString@Base 4:15.12
 _ZN13MessageViewer13ScamDetectionC1EP7QObject@Base 4:15.12
 _ZN13MessageViewer13ScamDetectionC2EP7QObject@Base 4:15.12
 _ZN13MessageViewer13ScamDetectionD0Ev@Base 4:15.12
 _ZN13MessageViewer13ScamDetectionD1Ev@Base 4:15.12
 _ZN13MessageViewer13ScamDetectionD2Ev@Base 4:15.12
 _ZN13MessageViewer14AdBlockManager11qt_metacallEN11QMetaObject4CallEiPPv@Base 4:16.04.0
 _ZN13MessageViewer14AdBlockManager11qt_metacastEPKc@Base 4:16.04.0
 _ZN13MessageViewer14AdBlockManager12blockRequestERK15QNetworkRequest@Base 4:16.04.0
 _ZN13MessageViewer14AdBlockManager12loadSettingsEv@Base 4:16.04.0
 _ZN13MessageViewer14AdBlockManager12reloadConfigEv@Base 4:16.04.0
 _ZN13MessageViewer14AdBlockManager12slotFinishedEP4KJob@Base 4:16.04.0
 _ZN13MessageViewer14AdBlockManager13addCustomRuleERK7QStringb@Base 4:16.04.0
 _ZN13MessageViewer14AdBlockManager14loadRuleStringERK7QString@Base 4:16.04.0
 _ZN13MessageViewer14AdBlockManager16applyHidingRulesEP9QWebFrame@Base 4:16.04.0
 _ZN13MessageViewer14AdBlockManager16applyHidingRulesEb@Base 4:16.04.0
 _ZN13MessageViewer14AdBlockManager16isHidingElementsEv@Base 4:16.04.0
 _ZN13MessageViewer14AdBlockManager16s_adBlockManagerE@Base 4:16.04.0
 _ZN13MessageViewer14AdBlockManager16staticMetaObjectE@Base 4:16.04.0
 _ZN13MessageViewer14AdBlockManager17reloadCurrentPageEv@Base 4:16.04.0
 _ZN13MessageViewer14AdBlockManager18updateSubscriptionERK7QStringS3_S3_@Base 4:16.04.0
 _ZN13MessageViewer14AdBlockManager22subscriptionFileExistsEi@Base 4:16.04.0
 _ZN13MessageViewer14AdBlockManager23isAdblockEnabledForHostERK7QString@Base 4:16.04.0
 _ZN13MessageViewer14AdBlockManager4selfEv@Base 4:16.04.0
 _ZN13MessageViewer14AdBlockManager9isEnabledEv@Base 4:16.04.0
 _ZN13MessageViewer14AdBlockManager9loadRulesERK7QStringRK11QStringList@Base 4:16.04.0
 _ZN13MessageViewer14AdBlockManagerC1EP7QObject@Base 4:16.04.0
 _ZN13MessageViewer14AdBlockManagerC2EP7QObject@Base 4:16.04.0
 _ZN13MessageViewer14AdBlockManagerD0Ev@Base 4:16.04.0
 _ZN13MessageViewer14AdBlockManagerD1Ev@Base 4:16.04.0
 _ZN13MessageViewer14AdBlockManagerD2Ev@Base 4:16.04.0
 _ZN13MessageViewer14CreateEventJob11createEventEv@Base 4:15.12
 _ZN13MessageViewer14CreateEventJob11qt_metacallEN11QMetaObject4CallEiPPv@Base 4:15.12
 _ZN13MessageViewer14CreateEventJob11qt_metacastEPKc@Base 4:15.12
 _ZN13MessageViewer14CreateEventJob12eventCreatedEP4KJob@Base 4:15.12
 _ZN13MessageViewer14CreateEventJob13slotFetchDoneEP4KJob@Base 4:15.12
 _ZN13MessageViewer14CreateEventJob15relationCreatedEP4KJob@Base 4:15.12
 _ZN13MessageViewer14CreateEventJob16staticMetaObjectE@Base 4:15.12
 _ZN13MessageViewer14CreateEventJob5startEv@Base 4:15.12
 _ZN13MessageViewer14CreateEventJobC1ERK14QSharedPointerIN8KCalCore5EventEERKN7Akonadi10CollectionERKNS7_4ItemEP7QObject@Base 4:15.12
 _ZN13MessageViewer14CreateEventJobC2ERK14QSharedPointerIN8KCalCore5EventEERKN7Akonadi10CollectionERKNS7_4ItemEP7QObject@Base 4:15.12
 _ZN13MessageViewer14CreateEventJobD0Ev@Base 4:15.12
 _ZN13MessageViewer14CreateEventJobD1Ev@Base 4:15.12
 _ZN13MessageViewer14CreateEventJobD2Ev@Base 4:15.12
 _ZN13MessageViewer14FileHtmlWriter10openOrWarnEv@Base 4:15.12
 _ZN13MessageViewer14FileHtmlWriter3endEv@Base 4:15.12
 _ZN13MessageViewer14FileHtmlWriter5beginERK7QString@Base 4:15.12
 _ZN13MessageViewer14FileHtmlWriter5flushEv@Base 4:15.12
 _ZN13MessageViewer14FileHtmlWriter5queueERK7QString@Base 4:15.12
 _ZN13MessageViewer14FileHtmlWriter5resetEv@Base 4:15.12
 _ZN13MessageViewer14FileHtmlWriter5writeERK7QString@Base 4:15.12
 _ZN13MessageViewer14FileHtmlWriter9embedPartERK10QByteArrayRK7QString@Base 4:15.12
 _ZN13MessageViewer14FileHtmlWriter9extraHeadERK7QString@Base 4:15.12
 _ZN13MessageViewer14FileHtmlWriterC1ERK7QString@Base 4:15.12
 _ZN13MessageViewer14FileHtmlWriterC2ERK7QString@Base 4:15.12
 _ZN13MessageViewer14FileHtmlWriterD0Ev@Base 4:15.12
 _ZN13MessageViewer14FileHtmlWriterD1Ev@Base 4:15.12
 _ZN13MessageViewer14FileHtmlWriterD2Ev@Base 4:15.12
 _ZN13MessageViewer14FindBarWebView10searchTextEbb@Base 4:16.04.0
 _ZN13MessageViewer14FindBarWebView11qt_metacallEN11QMetaObject4CallEiPPv@Base 4:16.04.0
 _ZN13MessageViewer14FindBarWebView11qt_metacastEPKc@Base 4:16.04.0
 _ZN13MessageViewer14FindBarWebView15clearSelectionsEv@Base 4:16.04.0
 _ZN13MessageViewer14FindBarWebView15updateHighLightEb@Base 4:16.04.0
 _ZN13MessageViewer14FindBarWebView16staticMetaObjectE@Base 4:16.04.0
 _ZN13MessageViewer14FindBarWebView17updateSensitivityEb@Base 4:16.04.0
 _ZN13MessageViewer14FindBarWebView29slotFindSelectionFirstChangedEb@Base 4:16.04.0
 _ZN13MessageViewer14FindBarWebViewC1EP8QWebViewP7QWidget@Base 4:16.04.0
 _ZN13MessageViewer14FindBarWebViewC2EP8QWebViewP7QWidget@Base 4:16.04.0
 _ZN13MessageViewer14FindBarWebViewD0Ev@Base 4:16.04.0
 _ZN13MessageViewer14FindBarWebViewD1Ev@Base 4:16.04.0
 _ZN13MessageViewer14FindBarWebViewD2Ev@Base 4:16.04.0
 _ZN13MessageViewer14HeaderStrategy10stringListEPKPKci@Base 4:15.12
 _ZN13MessageViewer14HeaderStrategyC1Ev@Base 4:15.12
 _ZN13MessageViewer14HeaderStrategyC2Ev@Base 4:15.12
 _ZN13MessageViewer14HeaderStrategyD0Ev@Base 4:15.12
 _ZN13MessageViewer14HeaderStrategyD1Ev@Base 4:15.12
 _ZN13MessageViewer14HeaderStrategyD2Ev@Base 4:15.12
 _ZN13MessageViewer14ZoomActionMenu10slotZoomInEv@Base 4:16.04.0
 _ZN13MessageViewer14ZoomActionMenu11qt_metacallEN11QMetaObject4CallEiPPv@Base 4:16.04.0
 _ZN13MessageViewer14ZoomActionMenu11qt_metacastEPKc@Base 4:16.04.0
 _ZN13MessageViewer14ZoomActionMenu11slotZoomOutEv@Base 4:16.04.0
 _ZN13MessageViewer14ZoomActionMenu11zoomChangedEd@Base 4:16.04.0
 _ZN13MessageViewer14ZoomActionMenu13setZoomFactorEd@Base 4:16.04.0
 _ZN13MessageViewer14ZoomActionMenu13slotZoomResetEv@Base 4:16.04.0
 _ZN13MessageViewer14ZoomActionMenu15setZoomTextOnlyEb@Base 4:16.04.0
 _ZN13MessageViewer14ZoomActionMenu16slotZoomTextOnlyEv@Base 4:16.04.0
 _ZN13MessageViewer14ZoomActionMenu16staticMetaObjectE@Base 4:16.04.0
 _ZN13MessageViewer14ZoomActionMenu17createZoomActionsEv@Base 4:16.04.0
 _ZN13MessageViewer14ZoomActionMenu19setActionCollectionEP17KActionCollection@Base 4:16.04.0
 _ZN13MessageViewer14ZoomActionMenu19zoomTextOnlyChangedEb@Base 4:16.04.0
 _ZN13MessageViewer14ZoomActionMenu22setWebViewerZoomFactorEd@Base 4:16.04.0
 _ZN13MessageViewer14ZoomActionMenuC1EP7QObject@Base 4:16.04.0
 _ZN13MessageViewer14ZoomActionMenuC2EP7QObject@Base 4:16.04.0
 _ZN13MessageViewer14ZoomActionMenuD0Ev@Base 4:16.04.0
 _ZN13MessageViewer14ZoomActionMenuD1Ev@Base 4:16.04.0
 _ZN13MessageViewer14ZoomActionMenuD2Ev@Base 4:16.04.0
 _ZN13MessageViewer15ConfigureWidget10readConfigEv@Base 4:15.12
 _ZN13MessageViewer15ConfigureWidget11qt_metacallEN11QMetaObject4CallEiPPv@Base 4:15.12
 _ZN13MessageViewer15ConfigureWidget11qt_metacastEPKc@Base 4:15.12
 _ZN13MessageViewer15ConfigureWidget11writeConfigEv@Base 4:15.12
 _ZN13MessageViewer15ConfigureWidget15settingsChangedEv@Base 4:15.12
 _ZN13MessageViewer15ConfigureWidget16staticMetaObjectE@Base 4:15.12
 _ZN13MessageViewer15ConfigureWidget24readCurrentOverrideCodecEv@Base 4:15.12
 _ZN13MessageViewer15ConfigureWidgetC1EP7QWidget@Base 4:15.12
 _ZN13MessageViewer15ConfigureWidgetC2EP7QWidget@Base 4:15.12
 _ZN13MessageViewer15ConfigureWidgetD0Ev@Base 4:15.12
 _ZN13MessageViewer15ConfigureWidgetD1Ev@Base 4:15.12
 _ZN13MessageViewer15ConfigureWidgetD2Ev@Base 4:15.12
 _ZN13MessageViewer15HeaderStyleUtil13addMailActionER5QHashI7QString8QVariantE@Base 4:16.04.0
 _ZN13MessageViewer15HeaderStyleUtilC1Ev@Base 4:16.04.0
 _ZN13MessageViewer15HeaderStyleUtilC2Ev@Base 4:16.04.0
 _ZN13MessageViewer15QueueHtmlWriter3endEv@Base 4:15.12
 _ZN13MessageViewer15QueueHtmlWriter5beginERK7QString@Base 4:15.12
 _ZN13MessageViewer15QueueHtmlWriter5flushEv@Base 4:15.12
 _ZN13MessageViewer15QueueHtmlWriter5queueERK7QString@Base 4:15.12
 _ZN13MessageViewer15QueueHtmlWriter5resetEv@Base 4:15.12
 _ZN13MessageViewer15QueueHtmlWriter5writeERK7QString@Base 4:15.12
 _ZN13MessageViewer15QueueHtmlWriter6replayEv@Base 4:15.12
 _ZN13MessageViewer15QueueHtmlWriter9embedPartERK10QByteArrayRK7QString@Base 4:15.12
 _ZN13MessageViewer15QueueHtmlWriter9extraHeadERK7QString@Base 4:15.12
 _ZN13MessageViewer15QueueHtmlWriterC1EPNS_10HtmlWriterE@Base 4:15.12
 _ZN13MessageViewer15QueueHtmlWriterC2EPNS_10HtmlWriterE@Base 4:15.12
 _ZN13MessageViewer15QueueHtmlWriterD0Ev@Base 4:15.12
 _ZN13MessageViewer15QueueHtmlWriterD1Ev@Base 4:15.12
 _ZN13MessageViewer15QueueHtmlWriterD2Ev@Base 4:15.12
 _ZN13MessageViewer16ObjectTreeParser10quotedHTMLERK7QStringb@Base 4:15.12
 _ZN13MessageViewer16ObjectTreeParser11findTypeNotEPN5KMime7ContentERK10QByteArrayS6_bb@Base 4:15.12
 _ZN13MessageViewer16ObjectTreeParser11setPrintingEb@Base 4:15.12
 _ZN13MessageViewer16ObjectTreeParser13okDecryptMIMEERN5KMime7ContentER10QByteArrayRbRSt6vectorIN5GpgME9SignatureESaIS9_EEbS6_S6_S6_RNS_12PartMetaDataE@Base 4:15.12
 _ZN13MessageViewer16ObjectTreeParser13setAllowAsyncEb@Base 4:15.12
 _ZN13MessageViewer16ObjectTreeParser13writePartIconEPN5KMime7ContentEb@Base 4:15.12
 _ZN13MessageViewer16ObjectTreeParser15copyContentFromEPKS0_@Base 4:15.12
 _ZN13MessageViewer16ObjectTreeParser15defaultHandlingEPN5KMime7ContentERNS_13ProcessResultE@Base 4:15.12
 _ZN13MessageViewer16ObjectTreeParser15parseObjectTreeEPN5KMime7ContentE@Base 4:15.12
 _ZN13MessageViewer16ObjectTreeParser16extractNodeInfosEPN5KMime7ContentEb@Base 4:15.12
 _ZN13MessageViewer16ObjectTreeParser16isMailmanMessageEPN5KMime7ContentE@Base 4:15.12
 _ZN13MessageViewer16ObjectTreeParser17setCryptoProtocolEPKN4Kleo13CryptoBackend8ProtocolE@Base 4:15.12
 _ZN13MessageViewer16ObjectTreeParser19sigStatusToMetaDataERKSt6vectorIN5GpgME9SignatureESaIS3_EEPKN4Kleo13CryptoBackend8ProtocolERNS_12PartMetaDataENS2_3KeyE@Base 4:15.12
 _ZN13MessageViewer16ObjectTreeParser21processMailmanSubtypeEPN5KMime7ContentERNS_13ProcessResultE@Base 4:16.04.0
 _ZN13MessageViewer16ObjectTreeParser22createAndParseTempNodeEPN5KMime7ContentEPKcS5_@Base 4:15.12
 _ZN13MessageViewer16ObjectTreeParser22processTextHtmlSubtypeEPN5KMime7ContentERNS_13ProcessResultE@Base 4:15.12
 _ZN13MessageViewer16ObjectTreeParser22setShowOnlyOneMimePartEb@Base 4:15.12
 _ZN13MessageViewer16ObjectTreeParser23parseObjectTreeInternalEPN5KMime7ContentE@Base 4:15.12
 _ZN13MessageViewer16ObjectTreeParser23processTextPlainSubtypeEPN5KMime7ContentERNS_13ProcessResultE@Base 4:15.12
 _ZN13MessageViewer16ObjectTreeParser28processMultiPartMixedSubtypeEPN5KMime7ContentERNS_13ProcessResultE@Base 4:15.12
 _ZN13MessageViewer16ObjectTreeParser28writeCertificateImportResultERKN5GpgME12ImportResultE@Base 4:15.12
 _ZN13MessageViewer16ObjectTreeParser29processMultiPartSignedSubtypeEPN5KMime7ContentERNS_13ProcessResultE@Base 4:15.12
 _ZN13MessageViewer16ObjectTreeParser32processMultiPartEncryptedSubtypeEPN5KMime7ContentERNS_13ProcessResultE@Base 4:15.12
 _ZN13MessageViewer16ObjectTreeParser34processApplicationPkcs7MimeSubtypeEPN5KMime7ContentERNS_13ProcessResultE@Base 4:15.12
 _ZN13MessageViewer16ObjectTreeParser34processMultiPartAlternativeSubtypeEPN5KMime7ContentERNS_13ProcessResultE@Base 4:15.12
 _ZN13MessageViewer16ObjectTreeParser4initEv@Base 4:15.12
 _ZN13MessageViewer16ObjectTreeParser8findTypeEPN5KMime7ContentERK10QByteArrayS6_bb@Base 4:15.12
 _ZN13MessageViewer16ObjectTreeParser8findTypeEPN5KMime7ContentERK10QByteArraybb@Base 4:15.12
 _ZN13MessageViewer16ObjectTreeParser8okVerifyERK10QByteArrayPKN4Kleo13CryptoBackend8ProtocolERNS_12PartMetaDataERS1_RSt6vectorIN5GpgME9SignatureESaISE_EES3_PN5KMime7ContentE@Base 4:15.12
 _ZN13MessageViewer16ObjectTreeParserC1EPKS0_bPKNS_18AttachmentStrategyE@Base 4:15.12
 _ZN13MessageViewer16ObjectTreeParserC1EPNS_18ObjectTreeSourceIfEPNS_10NodeHelperEPKN4Kleo13CryptoBackend8ProtocolEbPKNS_18AttachmentStrategyE@Base 4:15.12
 _ZN13MessageViewer16ObjectTreeParserC1ERKS0_@Base 4:15.12
 _ZN13MessageViewer16ObjectTreeParserC2EPKS0_bPKNS_18AttachmentStrategyE@Base 4:15.12
 _ZN13MessageViewer16ObjectTreeParserC2EPNS_18ObjectTreeSourceIfEPNS_10NodeHelperEPKN4Kleo13CryptoBackend8ProtocolEbPKNS_18AttachmentStrategyE@Base 4:15.12
 _ZN13MessageViewer16ObjectTreeParserC2ERKS0_@Base 4:15.12
 _ZN13MessageViewer16ObjectTreeParserD0Ev@Base 4:15.12
 _ZN13MessageViewer16ObjectTreeParserD1Ev@Base 4:15.12
 _ZN13MessageViewer16ObjectTreeParserD2Ev@Base 4:15.12
 _ZN13MessageViewer16PlainHeaderStyleC1Ev@Base 4:15.12
 _ZN13MessageViewer16PlainHeaderStyleC2Ev@Base 4:15.12
 _ZN13MessageViewer16PrintingSettings11qt_metacallEN11QMetaObject4CallEiPPv@Base 4:15.12
 _ZN13MessageViewer16PrintingSettings11qt_metacastEPKc@Base 4:15.12
 _ZN13MessageViewer16PrintingSettings16staticMetaObjectE@Base 4:15.12
 _ZN13MessageViewer16PrintingSettings22doResetToDefaultsOtherEv@Base 4:15.12
 _ZN13MessageViewer16PrintingSettings24doLoadFromGlobalSettingsEv@Base 4:15.12
 _ZN13MessageViewer16PrintingSettings4saveEv@Base 4:15.12
 _ZN13MessageViewer16PrintingSettings7changedEv@Base 4:15.12
 _ZN13MessageViewer16PrintingSettingsC1EP7QWidget@Base 4:15.12
 _ZN13MessageViewer16PrintingSettingsC2EP7QWidget@Base 4:15.12
 _ZN13MessageViewer16PrintingSettingsD0Ev@Base 4:15.12
 _ZN13MessageViewer16PrintingSettingsD1Ev@Base 4:15.12
 _ZN13MessageViewer16PrintingSettingsD2Ev@Base 4:15.12
 _ZN13MessageViewer16ScamExpandUrlJob11expandedUrlERK4QUrl@Base 4:16.04.0
 _ZN13MessageViewer16ScamExpandUrlJob11qt_metacallEN11QMetaObject4CallEiPPv@Base 4:16.04.0
 _ZN13MessageViewer16ScamExpandUrlJob11qt_metacastEPKc@Base 4:16.04.0
 _ZN13MessageViewer16ScamExpandUrlJob11urlExpandedERK7QStringS3_@Base 4:16.04.0
 _ZN13MessageViewer16ScamExpandUrlJob14expandUrlErrorEN13QNetworkReply12NetworkErrorE@Base 4:16.04.0
 _ZN13MessageViewer16ScamExpandUrlJob16staticMetaObjectE@Base 4:16.04.0
 _ZN13MessageViewer16ScamExpandUrlJob18slotExpandFinishedEP13QNetworkReply@Base 4:16.04.0
 _ZN13MessageViewer16ScamExpandUrlJob9slotErrorEN13QNetworkReply12NetworkErrorE@Base 4:16.04.0
 _ZN13MessageViewer16ScamExpandUrlJobC1EP7QObject@Base 4:16.04.0
 _ZN13MessageViewer16ScamExpandUrlJobC2EP7QObject@Base 4:16.04.0
 _ZN13MessageViewer16ScamExpandUrlJobD0Ev@Base 4:16.04.0
 _ZN13MessageViewer16ScamExpandUrlJobD1Ev@Base 4:16.04.0
 _ZN13MessageViewer16ScamExpandUrlJobD2Ev@Base 4:16.04.0
 _ZN13MessageViewer16WebViewAccessKey10wheelEventEP11QWheelEvent@Base 4:16.04.0
 _ZN13MessageViewer16WebViewAccessKey11qt_metacallEN11QMetaObject4CallEiPPv@Base 4:16.04.0
 _ZN13MessageViewer16WebViewAccessKey11qt_metacastEPKc@Base 4:16.04.0
 _ZN13MessageViewer16WebViewAccessKey11resizeEventEP12QResizeEvent@Base 4:16.04.0
 _ZN13MessageViewer16WebViewAccessKey13keyPressEventEP9QKeyEvent@Base 4:16.04.0
 _ZN13MessageViewer16WebViewAccessKey14hideAccessKeysEv@Base 4:16.04.0
 _ZN13MessageViewer16WebViewAccessKey14showAccessKeysEv@Base 4:16.04.0
 _ZN13MessageViewer16WebViewAccessKey15keyReleaseEventEP9QKeyEvent@Base 4:16.04.0
 _ZN13MessageViewer16WebViewAccessKey16staticMetaObjectE@Base 4:16.04.0
 _ZN13MessageViewer16WebViewAccessKey17checkForAccessKeyEP9QKeyEvent@Base 4:16.04.0
 _ZN13MessageViewer16WebViewAccessKey18makeAccessKeyLabelE5QCharRK11QWebElement@Base 4:16.04.0
 _ZN13MessageViewer16WebViewAccessKey19setActionCollectionEP17KActionCollection@Base 4:16.04.0
 _ZN13MessageViewer16WebViewAccessKey7openUrlERK4QUrl@Base 4:16.04.0
 _ZN13MessageViewer16WebViewAccessKeyC1EP8QWebViewP7QObject@Base 4:16.04.0
 _ZN13MessageViewer16WebViewAccessKeyC2EP8QWebViewP7QObject@Base 4:16.04.0
 _ZN13MessageViewer16WebViewAccessKeyD0Ev@Base 4:16.04.0
 _ZN13MessageViewer16WebViewAccessKeyD1Ev@Base 4:16.04.0
 _ZN13MessageViewer16WebViewAccessKeyD2Ev@Base 4:16.04.0
 _ZN13MessageViewer17HeaderStylePlugin11qt_metacallEN11QMetaObject4CallEiPPv@Base 4:15.12
 _ZN13MessageViewer17HeaderStylePlugin11qt_metacastEPKc@Base 4:15.12
 _ZN13MessageViewer17HeaderStylePlugin16staticMetaObjectE@Base 4:15.12
 _ZN13MessageViewer17HeaderStylePluginC1EP7QObject@Base 4:15.12
 _ZN13MessageViewer17HeaderStylePluginC2EP7QObject@Base 4:15.12
 _ZN13MessageViewer17HeaderStylePluginD0Ev@Base 4:15.12
 _ZN13MessageViewer17HeaderStylePluginD1Ev@Base 4:15.12
 _ZN13MessageViewer17HeaderStylePluginD2Ev@Base 4:15.12
 _ZN13MessageViewer17ScamCheckShortUrl10isShortUrlERK4QUrl@Base 4:15.12
 _ZN13MessageViewer17ScamCheckShortUrl11expandedUrlERK4QUrl@Base 4:15.12
 _ZN13MessageViewer17ScamCheckShortUrl11qt_metacallEN11QMetaObject4CallEiPPv@Base 4:15.12
 _ZN13MessageViewer17ScamCheckShortUrl11qt_metacastEPKc@Base 4:15.12
 _ZN13MessageViewer17ScamCheckShortUrl16staticMetaObjectE@Base 4:15.12
 _ZN13MessageViewer17ScamCheckShortUrl18sSupportedServicesE@Base 4:15.12
 _ZN13MessageViewer17ScamCheckShortUrl19loadLongUrlServicesEv@Base 4:15.12
 _ZN13MessageViewer17ScamCheckShortUrlC1EP7QObject@Base 4:15.12
 _ZN13MessageViewer17ScamCheckShortUrlC2EP7QObject@Base 4:15.12
 _ZN13MessageViewer17ScamCheckShortUrlD0Ev@Base 4:15.12
 _ZN13MessageViewer17ScamCheckShortUrlD1Ev@Base 4:15.12
 _ZN13MessageViewer17ScamCheckShortUrlD2Ev@Base 4:15.12
 _ZN13MessageViewer18AttachmentStrategy10headerOnlyEv@Base 4:15.12
 _ZN13MessageViewer18AttachmentStrategy5smartEv@Base 4:15.12
 _ZN13MessageViewer18AttachmentStrategy6createENS0_4TypeE@Base 4:15.12
 _ZN13MessageViewer18AttachmentStrategy6createERK7QString@Base 4:15.12
 _ZN13MessageViewer18AttachmentStrategy6hiddenEv@Base 4:15.12
 _ZN13MessageViewer18AttachmentStrategy6iconicEv@Base 4:15.12
 _ZN13MessageViewer18AttachmentStrategy7inlinedEv@Base 4:15.12
 _ZN13MessageViewer18AttachmentStrategyC1Ev@Base 4:15.12
 _ZN13MessageViewer18AttachmentStrategyC2Ev@Base 4:15.12
 _ZN13MessageViewer18AttachmentStrategyD0Ev@Base 4:15.12
 _ZN13MessageViewer18AttachmentStrategyD1Ev@Base 4:15.12
 _ZN13MessageViewer18AttachmentStrategyD2Ev@Base 4:15.12
 _ZN13MessageViewer18InvitationSettings11qt_metacallEN11QMetaObject4CallEiPPv@Base 4:15.12
 _ZN13MessageViewer18InvitationSettings11qt_metacastEPKc@Base 4:15.12
 _ZN13MessageViewer18InvitationSettings16staticMetaObjectE@Base 4:15.12
 _ZN13MessageViewer18InvitationSettings22doResetToDefaultsOtherEv@Base 4:15.12
 _ZN13MessageViewer18InvitationSettings24doLoadFromGlobalSettingsEv@Base 4:15.12
 _ZN13MessageViewer18InvitationSettings28slotLegacyBodyInvitesToggledEb@Base 4:15.12
 _ZN13MessageViewer18InvitationSettings4saveEv@Base 4:15.12
 _ZN13MessageViewer18InvitationSettings7changedEv@Base 4:15.12
 _ZN13MessageViewer18InvitationSettingsC1EP7QWidget@Base 4:15.12
 _ZN13MessageViewer18InvitationSettingsC2EP7QWidget@Base 4:15.12
 _ZN13MessageViewer18InvitationSettingsD0Ev@Base 4:15.12
 _ZN13MessageViewer18InvitationSettingsD1Ev@Base 4:15.12
 _ZN13MessageViewer18InvitationSettingsD2Ev@Base 4:15.12
 _ZN13MessageViewer18RichHeaderStrategyC1Ev@Base 4:15.12
 _ZN13MessageViewer18RichHeaderStrategyC2Ev@Base 4:15.12
 _ZN13MessageViewer18RichHeaderStrategyD0Ev@Base 4:15.12
 _ZN13MessageViewer18RichHeaderStrategyD1Ev@Base 4:15.12
 _ZN13MessageViewer18RichHeaderStrategyD2Ev@Base 4:15.12
 _ZN13MessageViewer19GrantleeHeaderStyleC1Ev@Base 4:15.12
 _ZN13MessageViewer19GrantleeHeaderStyleC2Ev@Base 4:15.12
 _ZN13MessageViewer19GrantleeHeaderStyleD0Ev@Base 4:15.12
 _ZN13MessageViewer19GrantleeHeaderStyleD1Ev@Base 4:15.12
 _ZN13MessageViewer19GrantleeHeaderStyleD2Ev@Base 4:15.12
 _ZN13MessageViewer19ViewerPluginManager11qt_metacallEN11QMetaObject4CallEiPPv@Base 4:15.12
 _ZN13MessageViewer19ViewerPluginManager11qt_metacastEPKc@Base 4:15.12
 _ZN13MessageViewer19ViewerPluginManager13setPluginNameERK7QString@Base 4:16.04.0
 _ZN13MessageViewer19ViewerPluginManager16staticMetaObjectE@Base 4:15.12
 _ZN13MessageViewer19ViewerPluginManager18setServiceTypeNameERK7QString@Base 4:16.04.0
 _ZN13MessageViewer19ViewerPluginManager20initializePluginListEv@Base 4:16.04.0
 _ZN13MessageViewer19ViewerPluginManager4selfEv@Base 4:15.12
 _ZN13MessageViewer19ViewerPluginManagerC1EP7QObject@Base 4:15.12
 _ZN13MessageViewer19ViewerPluginManagerC2EP7QObject@Base 4:15.12
 _ZN13MessageViewer19ViewerPluginManagerD0Ev@Base 4:15.12
 _ZN13MessageViewer19ViewerPluginManagerD1Ev@Base 4:15.12
 _ZN13MessageViewer19ViewerPluginManagerD2Ev@Base 4:15.12
 _ZN13MessageViewer20AdBlockSettingWidget10hasChangedEv@Base 4:15.12
 _ZN13MessageViewer20AdBlockSettingWidget10insertRuleEv@Base 4:15.12
 _ZN13MessageViewer20AdBlockSettingWidget10removeRuleEv@Base 4:15.12
 _ZN13MessageViewer20AdBlockSettingWidget11qt_metacallEN11QMetaObject4CallEiPPv@Base 4:15.12
 _ZN13MessageViewer20AdBlockSettingWidget11qt_metacastEPKc@Base 4:15.12
 _ZN13MessageViewer20AdBlockSettingWidget12slotShowListEv@Base 4:15.12
 _ZN13MessageViewer20AdBlockSettingWidget13slotAddFilterEv@Base 4:15.12
 _ZN13MessageViewer20AdBlockSettingWidget14slotDeleteListERK7QString@Base 4:15.12
 _ZN13MessageViewer20AdBlockSettingWidget14slotEditFilterEv@Base 4:15.12
 _ZN13MessageViewer20AdBlockSettingWidget14updateCheckBoxEv@Base 4:15.12
 _ZN13MessageViewer20AdBlockSettingWidget15addManualFilterERK7QStringRK11QStringList@Base 4:16.04.0
 _ZN13MessageViewer20AdBlockSettingWidget16staticMetaObjectE@Base 4:15.12
 _ZN13MessageViewer20AdBlockSettingWidget17slotExportFiltersEv@Base 4:15.12
 _ZN13MessageViewer20AdBlockSettingWidget17slotImportFiltersEv@Base 4:15.12
 _ZN13MessageViewer20AdBlockSettingWidget17slotUpdateButtonsEv@Base 4:15.12
 _ZN13MessageViewer20AdBlockSettingWidget21slotInfoLinkActivatedERK7QString@Base 4:15.12
 _ZN13MessageViewer20AdBlockSettingWidget22doResetToDefaultsOtherEv@Base 4:15.12
 _ZN13MessageViewer20AdBlockSettingWidget22slotRemoveSubscriptionEv@Base 4:15.12
 _ZN13MessageViewer20AdBlockSettingWidget23showAutomaticFilterListEP15QListWidgetItem@Base 4:15.12
 _ZN13MessageViewer20AdBlockSettingWidget23slotUpdateManualButtonsEv@Base 4:15.12
 _ZN13MessageViewer20AdBlockSettingWidget24doLoadFromGlobalSettingsEv@Base 4:15.12
 _ZN13MessageViewer20AdBlockSettingWidget25slotAutomaticFilterDoubleEP15QListWidgetItem@Base 4:15.12
 _ZN13MessageViewer20AdBlockSettingWidget35slotManualFilterLineEditTextChangedERK7QString@Base 4:15.12
 _ZN13MessageViewer20AdBlockSettingWidget4saveEv@Base 4:15.12
 _ZN13MessageViewer20AdBlockSettingWidget7changedEb@Base 4:15.12
 _ZN13MessageViewer20AdBlockSettingWidgetC1EP7QWidget@Base 4:15.12
 _ZN13MessageViewer20AdBlockSettingWidgetC2EP7QWidget@Base 4:15.12
 _ZN13MessageViewer20AdBlockSettingWidgetD0Ev@Base 4:16.04.0
 _ZN13MessageViewer20AdBlockSettingWidgetD1Ev@Base 4:16.04.0
 _ZN13MessageViewer20AdBlockSettingWidgetD2Ev@Base 4:16.04.0
 _ZN13MessageViewer20HeaderStyleInterface11qt_metacallEN11QMetaObject4CallEiPPv@Base 4:15.12
 _ZN13MessageViewer20HeaderStyleInterface11qt_metacastEPKc@Base 4:15.12
 _ZN13MessageViewer20HeaderStyleInterface12styleChangedEPNS_17HeaderStylePluginE@Base 4:15.12
 _ZN13MessageViewer20HeaderStyleInterface12styleUpdatedEv@Base 4:15.12
 _ZN13MessageViewer20HeaderStyleInterface15addActionToMenuEP11KActionMenuP12QActionGroup@Base 4:15.12
 _ZN13MessageViewer20HeaderStyleInterface16slotStyleChangedEv@Base 4:15.12
 _ZN13MessageViewer20HeaderStyleInterface16staticMetaObjectE@Base 4:15.12
 _ZN13MessageViewer20HeaderStyleInterface17addHelpTextActionEP7QActionRK7QString@Base 4:15.12
 _ZN13MessageViewer20HeaderStyleInterfaceC1EPNS_17HeaderStylePluginEP7QObject@Base 4:15.12
 _ZN13MessageViewer20HeaderStyleInterfaceC2EPNS_17HeaderStylePluginEP7QObject@Base 4:15.12
 _ZN13MessageViewer20HeaderStyleInterfaceD0Ev@Base 4:15.12
 _ZN13MessageViewer20HeaderStyleInterfaceD1Ev@Base 4:15.12
 _ZN13MessageViewer20HeaderStyleInterfaceD2Ev@Base 4:15.12
 _ZN13MessageViewer21MessageViewerSettings11qt_metacallEN11QMetaObject4CallEiPPv@Base 4:15.12
 _ZN13MessageViewer21MessageViewerSettings11qt_metacastEPKc@Base 4:15.12
 _ZN13MessageViewer21MessageViewerSettings11requestSyncEv@Base 4:15.12
 _ZN13MessageViewer21MessageViewerSettings11slotSyncNowEv@Base 4:15.12
 _ZN13MessageViewer21MessageViewerSettings16staticMetaObjectE@Base 4:15.12
 _ZN13MessageViewer21MessageViewerSettings4selfEv@Base 4:15.12
 _ZN13MessageViewer21MessageViewerSettings5mSelfE@Base 4:15.12
 _ZN13MessageViewer21MessageViewerSettingsC1Ev@Base 4:15.12
 _ZN13MessageViewer21MessageViewerSettingsC2Ev@Base 4:15.12
 _ZN13MessageViewer21MessageViewerSettingsD0Ev@Base 4:15.12
 _ZN13MessageViewer21MessageViewerSettingsD1Ev@Base 4:15.12
 _ZN13MessageViewer21MessageViewerSettingsD2Ev@Base 4:15.12
 _ZN13MessageViewer21ViewerPluginInterface10setMessageERK14QSharedPointerIN5KMime7MessageEE@Base 4:15.12
 _ZN13MessageViewer21ViewerPluginInterface10showWidgetEv@Base 4:16.04.0
 _ZN13MessageViewer21ViewerPluginInterface11closePluginEv@Base 4:15.12
 _ZN13MessageViewer21ViewerPluginInterface11qt_metacallEN11QMetaObject4CallEiPPv@Base 4:15.12
 _ZN13MessageViewer21ViewerPluginInterface11qt_metacastEPKc@Base 4:15.12
 _ZN13MessageViewer21ViewerPluginInterface12updateActionERKN7Akonadi4ItemE@Base 4:15.12
 _ZN13MessageViewer21ViewerPluginInterface14activatePluginEPS0_@Base 4:15.12
 _ZN13MessageViewer21ViewerPluginInterface14setMessageItemERKN7Akonadi4ItemE@Base 4:15.12
 _ZN13MessageViewer21ViewerPluginInterface16staticMetaObjectE@Base 4:15.12
 _ZN13MessageViewer21ViewerPluginInterface17addHelpTextActionEP7QActionRK7QString@Base 4:15.12
 _ZN13MessageViewer21ViewerPluginInterface18slotActivatePluginEv@Base 4:15.12
 _ZN13MessageViewer21ViewerPluginInterface6setUrlERK4QUrl@Base 4:16.04.0
 _ZN13MessageViewer21ViewerPluginInterface7executeEv@Base 4:16.04.0
 _ZN13MessageViewer21ViewerPluginInterface7setTextERK7QString@Base 4:15.12
 _ZN13MessageViewer21ViewerPluginInterfaceC1EP7QObject@Base 4:15.12
 _ZN13MessageViewer21ViewerPluginInterfaceC2EP7QObject@Base 4:15.12
 _ZN13MessageViewer21ViewerPluginInterfaceD0Ev@Base 4:15.12
 _ZN13MessageViewer21ViewerPluginInterfaceD1Ev@Base 4:15.12
 _ZN13MessageViewer21ViewerPluginInterfaceD2Ev@Base 4:15.12
 _ZN13MessageViewer22HeaderStyleMenuManager10readConfigEv@Base 4:15.12
 _ZN13MessageViewer22HeaderStyleMenuManager11qt_metacallEN11QMetaObject4CallEiPPv@Base 4:15.12
 _ZN13MessageViewer22HeaderStyleMenuManager11qt_metacastEPKc@Base 4:15.12
 _ZN13MessageViewer22HeaderStyleMenuManager12styleChangedEPNS_17HeaderStylePluginE@Base 4:15.12
 _ZN13MessageViewer22HeaderStyleMenuManager12styleUpdatedEv@Base 4:15.12
 _ZN13MessageViewer22HeaderStyleMenuManager13setPluginNameERK7QString@Base 4:15.12
 _ZN13MessageViewer22HeaderStyleMenuManager16slotStyleChangedEPNS_17HeaderStylePluginE@Base 4:15.12
 _ZN13MessageViewer22HeaderStyleMenuManager16staticMetaObjectE@Base 4:15.12
 _ZN13MessageViewer22HeaderStyleMenuManagerC1EP17KActionCollectionP7QObject@Base 4:15.12
 _ZN13MessageViewer22HeaderStyleMenuManagerC2EP17KActionCollectionP7QObject@Base 4:15.12
 _ZN13MessageViewer22HeaderStyleMenuManagerD0Ev@Base 4:15.12
 _ZN13MessageViewer22HeaderStyleMenuManagerD1Ev@Base 4:15.12
 _ZN13MessageViewer22HeaderStyleMenuManagerD2Ev@Base 4:15.12
 _ZN13MessageViewer22MarkMessageReadHandler11qt_metacallEN11QMetaObject4CallEiPPv@Base 4:15.12
 _ZN13MessageViewer22MarkMessageReadHandler11qt_metacastEPKc@Base 4:15.12
 _ZN13MessageViewer22MarkMessageReadHandler16staticMetaObjectE@Base 4:15.12
 _ZN13MessageViewer22MarkMessageReadHandler7setItemERKN7Akonadi4ItemE@Base 4:15.12
 _ZN13MessageViewer22MarkMessageReadHandlerC1EP7QObject@Base 4:15.12
 _ZN13MessageViewer22MarkMessageReadHandlerC2EP7QObject@Base 4:15.12
 _ZN13MessageViewer22MarkMessageReadHandlerD0Ev@Base 4:15.12
 _ZN13MessageViewer22MarkMessageReadHandlerD1Ev@Base 4:15.12
 _ZN13MessageViewer22MarkMessageReadHandlerD2Ev@Base 4:15.12
 _ZN13MessageViewer23GrantleeHeaderFormatterC1Ev@Base 4:15.12
 _ZN13MessageViewer23GrantleeHeaderFormatterC2Ev@Base 4:15.12
 _ZN13MessageViewer23GrantleeHeaderFormatterD1Ev@Base 4:15.12
 _ZN13MessageViewer23GrantleeHeaderFormatterD2Ev@Base 4:15.12
 _ZN13MessageViewer23GrantleeHeaderTestStyle15setAbsolutePathERK7QString@Base 4:15.12
 _ZN13MessageViewer23GrantleeHeaderTestStyle15setMainFilenameERK7QString@Base 4:15.12
 _ZN13MessageViewer23GrantleeHeaderTestStyle22setExtraDisplayHeadersERK11QStringList@Base 4:15.12
 _ZN13MessageViewer23GrantleeHeaderTestStyleC1Ev@Base 4:15.12
 _ZN13MessageViewer23GrantleeHeaderTestStyleC2Ev@Base 4:15.12
 _ZN13MessageViewer23GrantleeHeaderTestStyleD0Ev@Base 4:15.12
 _ZN13MessageViewer23GrantleeHeaderTestStyleD1Ev@Base 4:15.12
 _ZN13MessageViewer23GrantleeHeaderTestStyleD2Ev@Base 4:15.12
 _ZN13MessageViewer23ViewerPluginToolManager10createViewEv@Base 4:15.12
 _ZN13MessageViewer23ViewerPluginToolManager11qt_metacallEN11QMetaObject4CallEiPPv@Base 4:15.12
 _ZN13MessageViewer23ViewerPluginToolManager11qt_metacastEPKc@Base 4:15.12
 _ZN13MessageViewer23ViewerPluginToolManager13closeAllToolsEv@Base 4:15.12
 _ZN13MessageViewer23ViewerPluginToolManager13setPluginNameERK7QString@Base 4:16.04.0
 _ZN13MessageViewer23ViewerPluginToolManager13updateActionsERKN7Akonadi4ItemE@Base 4:15.12
 _ZN13MessageViewer23ViewerPluginToolManager14activatePluginEPNS_21ViewerPluginInterfaceE@Base 4:15.12
 _ZN13MessageViewer23ViewerPluginToolManager16staticMetaObjectE@Base 4:15.12
 _ZN13MessageViewer23ViewerPluginToolManager18setServiceTypeNameERK7QString@Base 4:16.04.0
 _ZN13MessageViewer23ViewerPluginToolManager19setActionCollectionEP17KActionCollection@Base 4:15.12
 _ZN13MessageViewer23ViewerPluginToolManager20initializePluginListEv@Base 4:16.04.0
 _ZN13MessageViewer23ViewerPluginToolManagerC1EP7QWidgetP7QObject@Base 4:15.12
 _ZN13MessageViewer23ViewerPluginToolManagerC2EP7QWidgetP7QObject@Base 4:15.12
 _ZN13MessageViewer23ViewerPluginToolManagerD0Ev@Base 4:15.12
 _ZN13MessageViewer23ViewerPluginToolManagerD1Ev@Base 4:15.12
 _ZN13MessageViewer23ViewerPluginToolManagerD2Ev@Base 4:15.12
 _ZN13MessageViewer24BodyPartFormatterFactory11loadPluginsEv@Base 4:16.04.0
 _ZN13MessageViewer24BodyPartFormatterFactoryC1Ev@Base 4:16.04.0
 _ZN13MessageViewer24BodyPartFormatterFactoryC2Ev@Base 4:16.04.0
 _ZN13MessageViewer24BodyPartFormatterFactoryD0Ev@Base 4:16.04.0
 _ZN13MessageViewer24BodyPartFormatterFactoryD1Ev@Base 4:16.04.0
 _ZN13MessageViewer24BodyPartFormatterFactoryD2Ev@Base 4:16.04.0
 _ZN13MessageViewer24HeaderStylePluginManager11qt_metacallEN11QMetaObject4CallEiPPv@Base 4:15.12
 _ZN13MessageViewer24HeaderStylePluginManager11qt_metacastEPKc@Base 4:15.12
 _ZN13MessageViewer24HeaderStylePluginManager16staticMetaObjectE@Base 4:15.12
 _ZN13MessageViewer24HeaderStylePluginManager4selfEv@Base 4:15.12
 _ZN13MessageViewer24HeaderStylePluginManagerC1EP7QObject@Base 4:15.12
 _ZN13MessageViewer24HeaderStylePluginManagerC2EP7QObject@Base 4:15.12
 _ZN13MessageViewer24HeaderStylePluginManagerD0Ev@Base 4:15.12
 _ZN13MessageViewer24HeaderStylePluginManagerD1Ev@Base 4:15.12
 _ZN13MessageViewer24HeaderStylePluginManagerD2Ev@Base 4:15.12
 _ZN13MessageViewer24ScamCheckShortUrlManager11qt_metacallEN11QMetaObject4CallEiPPv@Base 4:16.04.0
 _ZN13MessageViewer24ScamCheckShortUrlManager11qt_metacastEPKc@Base 4:16.04.0
 _ZN13MessageViewer24ScamCheckShortUrlManager16staticMetaObjectE@Base 4:16.04.0
 _ZN13MessageViewer24ScamCheckShortUrlManager4selfEv@Base 4:16.04.0
 _ZN13MessageViewer24ScamCheckShortUrlManagerC1EP7QObject@Base 4:16.04.0
 _ZN13MessageViewer24ScamCheckShortUrlManagerC2EP7QObject@Base 4:16.04.0
 _ZN13MessageViewer24ScamCheckShortUrlManagerD0Ev@Base 4:16.04.0
 _ZN13MessageViewer24ScamCheckShortUrlManagerD1Ev@Base 4:16.04.0
 _ZN13MessageViewer24ScamCheckShortUrlManagerD2Ev@Base 4:16.04.0
 _ZN13MessageViewer25MessageViewerSettingsBase4selfEv@Base 4:15.12
 _ZN13MessageViewer25MessageViewerSettingsBaseC1Ev@Base 4:15.12
 _ZN13MessageViewer25MessageViewerSettingsBaseC2Ev@Base 4:15.12
 _ZN13MessageViewer25MessageViewerSettingsBaseD0Ev@Base 4:15.12
 _ZN13MessageViewer25MessageViewerSettingsBaseD1Ev@Base 4:15.12
 _ZN13MessageViewer25MessageViewerSettingsBaseD2Ev@Base 4:15.12
 _ZN13MessageViewer26ScamDetectionWarningWidget11qt_metacallEN11QMetaObject4CallEiPPv@Base 4:15.12
 _ZN13MessageViewer26ScamDetectionWarningWidget11qt_metacastEPKc@Base 4:15.12
 _ZN13MessageViewer26ScamDetectionWarningWidget11showDetailsEv@Base 4:15.12
 _ZN13MessageViewer26ScamDetectionWarningWidget14addToWhiteListEv@Base 4:15.12
 _ZN13MessageViewer26ScamDetectionWarningWidget15slotShowDetailsERK7QString@Base 4:15.12
 _ZN13MessageViewer26ScamDetectionWarningWidget15slotShowWarningEv@Base 4:15.12
 _ZN13MessageViewer26ScamDetectionWarningWidget16setUseInTestAppsEb@Base 4:15.12
 _ZN13MessageViewer26ScamDetectionWarningWidget16staticMetaObjectE@Base 4:15.12
 _ZN13MessageViewer26ScamDetectionWarningWidget17messageIsNotAScamEv@Base 4:15.12
 _ZN13MessageViewer26ScamDetectionWarningWidget18moveMessageToTrashEv@Base 4:15.12
 _ZN13MessageViewer26ScamDetectionWarningWidget18slotAddToWhiteListEv@Base 4:15.12
 _ZN13MessageViewer26ScamDetectionWarningWidget21slotMessageIsNotAScamEv@Base 4:15.12
 _ZN13MessageViewer26ScamDetectionWarningWidget24slotDisableScamDetectionEv@Base 4:15.12
 _ZN13MessageViewer26ScamDetectionWarningWidgetC1EP7QWidget@Base 4:15.12
 _ZN13MessageViewer26ScamDetectionWarningWidgetC2EP7QWidget@Base 4:15.12
 _ZN13MessageViewer26ScamDetectionWarningWidgetD0Ev@Base 4:15.12
 _ZN13MessageViewer26ScamDetectionWarningWidgetD1Ev@Base 4:15.12
 _ZN13MessageViewer26ScamDetectionWarningWidgetD2Ev@Base 4:15.12
 _ZN13MessageViewer27AdBlockBlockableItemsDialog10readConfigEv@Base 4:16.04.0
 _ZN13MessageViewer27AdBlockBlockableItemsDialog11qt_metacallEN11QMetaObject4CallEiPPv@Base 4:16.04.0
 _ZN13MessageViewer27AdBlockBlockableItemsDialog11qt_metacastEPKc@Base 4:16.04.0
 _ZN13MessageViewer27AdBlockBlockableItemsDialog11saveFiltersEv@Base 4:16.04.0
 _ZN13MessageViewer27AdBlockBlockableItemsDialog11setWebFrameEP9QWebFrame@Base 4:16.04.0
 _ZN13MessageViewer27AdBlockBlockableItemsDialog11writeConfigEv@Base 4:16.04.0
 _ZN13MessageViewer27AdBlockBlockableItemsDialog16staticMetaObjectE@Base 4:16.04.0
 _ZN13MessageViewer27AdBlockBlockableItemsDialogC1EP7QWidget@Base 4:16.04.0
 _ZN13MessageViewer27AdBlockBlockableItemsDialogC2EP7QWidget@Base 4:16.04.0
 _ZN13MessageViewer27AdBlockBlockableItemsDialogD0Ev@Base 4:16.04.0
 _ZN13MessageViewer27AdBlockBlockableItemsDialogD1Ev@Base 4:16.04.0
 _ZN13MessageViewer27AdBlockBlockableItemsDialogD2Ev@Base 4:16.04.0
 _ZN13MessageViewer27AdBlockBlockableItemsWidget11elementTypeENS0_11TypeElementE@Base 4:15.12
 _ZN13MessageViewer27AdBlockBlockableItemsWidget11qt_metacallEN11QMetaObject4CallEiPPv@Base 4:15.12
 _ZN13MessageViewer27AdBlockBlockableItemsWidget11qt_metacastEPKc@Base 4:15.12
 _ZN13MessageViewer27AdBlockBlockableItemsWidget11saveFiltersEv@Base 4:15.12
 _ZN13MessageViewer27AdBlockBlockableItemsWidget11setWebFrameEP9QWebFrame@Base 4:15.12
 _ZN13MessageViewer27AdBlockBlockableItemsWidget12slotCopyItemEv@Base 4:15.12
 _ZN13MessageViewer27AdBlockBlockableItemsWidget12slotOpenItemEv@Base 4:15.12
 _ZN13MessageViewer27AdBlockBlockableItemsWidget13slotBlockItemEv@Base 4:15.12
 _ZN13MessageViewer27AdBlockBlockableItemsWidget16slotRemoveFilterEv@Base 4:15.12
 _ZN13MessageViewer27AdBlockBlockableItemsWidget16staticMetaObjectE@Base 4:15.12
 _ZN13MessageViewer27AdBlockBlockableItemsWidget17elementTypeToI18nENS0_11TypeElementE@Base 4:15.12
 _ZN13MessageViewer27AdBlockBlockableItemsWidget18slotCopyFilterItemEv@Base 4:15.12
 _ZN13MessageViewer27AdBlockBlockableItemsWidget22searchBlockableElementEP9QWebFrame@Base 4:15.12
 _ZN13MessageViewer27AdBlockBlockableItemsWidget26customContextMenuRequestedERK6QPoint@Base 4:15.12
 _ZN13MessageViewer27AdBlockBlockableItemsWidget8adaptSrcER7QStringRKS1_@Base 4:15.12
 _ZN13MessageViewer27AdBlockBlockableItemsWidgetC1EP7QWidget@Base 4:15.12
 _ZN13MessageViewer27AdBlockBlockableItemsWidgetC2EP7QWidget@Base 4:15.12
 _ZN13MessageViewer27AdBlockBlockableItemsWidgetD0Ev@Base 4:15.12
 _ZN13MessageViewer27AdBlockBlockableItemsWidgetD1Ev@Base 4:15.12
 _ZN13MessageViewer27AdBlockBlockableItemsWidgetD2Ev@Base 4:15.12
 _ZN13MessageViewer28BodyPartFormatterBaseFactory11loadPluginsEv@Base 4:16.04.0
 _ZN13MessageViewer28BodyPartFormatterBaseFactory6insertEPKcS2_PKNS_9Interface17BodyPartFormatterE@Base 4:16.04.0
 _ZN13MessageViewer28BodyPartFormatterBaseFactoryC1Ev@Base 4:16.04.0
 _ZN13MessageViewer28BodyPartFormatterBaseFactoryC2Ev@Base 4:16.04.0
 _ZN13MessageViewer28BodyPartFormatterBaseFactoryD0Ev@Base 4:16.04.0
 _ZN13MessageViewer28BodyPartFormatterBaseFactoryD1Ev@Base 4:16.04.0
 _ZN13MessageViewer28BodyPartFormatterBaseFactoryD2Ev@Base 4:16.04.0
 _ZN13MessageViewer29MessageDisplayFormatAttribute11deserializeERK10QByteArray@Base 4:15.12
 _ZN13MessageViewer29MessageDisplayFormatAttribute16setMessageFormatENS_6Viewer20DisplayFormatMessageE@Base 4:15.12
 _ZN13MessageViewer29MessageDisplayFormatAttribute16setRemoteContentEb@Base 4:15.12
 _ZN13MessageViewer29MessageDisplayFormatAttributeC1Ev@Base 4:15.12
 _ZN13MessageViewer29MessageDisplayFormatAttributeC2Ev@Base 4:15.12
 _ZN13MessageViewer29MessageDisplayFormatAttributeD0Ev@Base 4:15.12
 _ZN13MessageViewer29MessageDisplayFormatAttributeD1Ev@Base 4:15.12
 _ZN13MessageViewer29MessageDisplayFormatAttributeD2Ev@Base 4:15.12
 _ZN13MessageViewer31AdBlockAutomaticRulesListWidget10createItemERK7QString@Base 4:16.04.0
 _ZN13MessageViewer31AdBlockAutomaticRulesListWidget10updateItemEP15QListWidgetItem@Base 4:16.04.0
 _ZN13MessageViewer31AdBlockAutomaticRulesListWidget11qt_metacallEN11QMetaObject4CallEiPPv@Base 4:16.04.0
 _ZN13MessageViewer31AdBlockAutomaticRulesListWidget11qt_metacastEPKc@Base 4:16.04.0
 _ZN13MessageViewer31AdBlockAutomaticRulesListWidget15slotItemChangedEP15QListWidgetItem@Base 4:16.04.0
 _ZN13MessageViewer31AdBlockAutomaticRulesListWidget16setDisabledRulesERK11QStringList@Base 4:16.04.0
 _ZN13MessageViewer31AdBlockAutomaticRulesListWidget16staticMetaObjectE@Base 4:16.04.0
 _ZN13MessageViewer31AdBlockAutomaticRulesListWidget8setRulesERK7QString@Base 4:16.04.0
 _ZN13MessageViewer31AdBlockAutomaticRulesListWidgetC1EP7QWidget@Base 4:16.04.0
 _ZN13MessageViewer31AdBlockAutomaticRulesListWidgetC2EP7QWidget@Base 4:16.04.0
 _ZN13MessageViewer31AdBlockAutomaticRulesListWidgetD0Ev@Base 4:16.04.0
 _ZN13MessageViewer31AdBlockAutomaticRulesListWidgetD1Ev@Base 4:16.04.0
 _ZN13MessageViewer31AdBlockAutomaticRulesListWidgetD2Ev@Base 4:16.04.0
 _ZN13MessageViewer4Util14checkOverwriteERK4QUrlP7QWidget@Base 4:15.12
 _ZN13MessageViewer4Util15createAppActionERK28QExplicitlySharedDataPointerI8KServiceEbP12QActionGroupP7QObject@Base 4:15.12
 _ZN13MessageViewer4Util15saveAttachmentsERK7QVectorIPN5KMime7ContentEEP7QWidgetR4QUrl@Base 4:15.12
 _ZN13MessageViewer4Util17saveMessageInMboxERK7QVectorIN7Akonadi4ItemEEP7QWidgetb@Base 4:15.12
 _ZN13MessageViewer4Util19fileNameForMimetypeERK7QStringiS3_S3_@Base 4:15.12
 _ZN13MessageViewer6KXFace10UnCompressEPciii@Base 4:15.12
 _ZN13MessageViewer6KXFace11qt_metacallEN11QMetaObject4CallEiPPv@Base 4:15.12
 _ZN13MessageViewer6KXFace11qt_metacastEPKc@Base 4:15.12
 _ZN13MessageViewer6KXFace16staticMetaObjectE@Base 4:15.12
 _ZN13MessageViewer6KXFace3GenEPc@Base 4:15.12
 _ZN13MessageViewer6KXFace4SameEPcii@Base 4:15.12
 _ZN13MessageViewer6KXFace6BigAddEh@Base 4:15.12
 _ZN13MessageViewer6KXFace6BigDivEhPh@Base 4:15.12
 _ZN13MessageViewer6KXFace6BigMulEh@Base 4:15.12
 _ZN13MessageViewer6KXFace6BigPopEPK4prob@Base 4:15.12
 _ZN13MessageViewer6KXFace7BigPushEP4prob@Base 4:15.12
 _ZN13MessageViewer6KXFace7BigReadEPc@Base 4:15.12
 _ZN13MessageViewer6KXFace7CompAllEPc@Base 4:15.12
 _ZN13MessageViewer6KXFace7GenFaceEv@Base 4:15.12
 _ZN13MessageViewer6KXFace7RevPushEPK4prob@Base 4:15.12
 _ZN13MessageViewer6KXFace7toImageERK7QString@Base 4:15.12
 _ZN13MessageViewer6KXFace8AllBlackEPcii@Base 4:15.12
 _ZN13MessageViewer6KXFace8AllWhiteEPcii@Base 4:15.12
 _ZN13MessageViewer6KXFace8BigClearEv@Base 4:15.12
 _ZN13MessageViewer6KXFace8BigWriteEPc@Base 4:15.12
 _ZN13MessageViewer6KXFace8CompressEPciii@Base 4:15.12
 _ZN13MessageViewer6KXFace8PopGreysEPcii@Base 4:15.12
 _ZN13MessageViewer6KXFace8ReadFaceEPc@Base 4:15.12
 _ZN13MessageViewer6KXFace9PushGreysEPcii@Base 4:15.12
 _ZN13MessageViewer6KXFace9UnCompAllEPc@Base 4:15.12
 _ZN13MessageViewer6KXFace9UnGenFaceEv@Base 4:15.12
 _ZN13MessageViewer6KXFace9WriteFaceEv@Base 4:15.12
 _ZN13MessageViewer6KXFace9fromImageERK6QImage@Base 4:15.12
 _ZN13MessageViewer6KXFaceC1Ev@Base 4:15.12
 _ZN13MessageViewer6KXFaceC2Ev@Base 4:15.12
 _ZN13MessageViewer6KXFaceD0Ev@Base 4:15.12
 _ZN13MessageViewer6KXFaceD1Ev@Base 4:15.12
 _ZN13MessageViewer6KXFaceD2Ev@Base 4:15.12
 _ZN13MessageViewer6Viewer10closeEventEP11QCloseEvent@Base 4:15.12
 _ZN13MessageViewer6Viewer10initializeEv@Base 4:15.12
 _ZN13MessageViewer6Viewer10mainWindowEv@Base 4:15.12
 _ZN13MessageViewer6Viewer10readConfigEv@Base 4:15.12
 _ZN13MessageViewer6Viewer10setAppNameERK7QString@Base 4:15.12
 _ZN13MessageViewer6Viewer10setMessageERK14QSharedPointerIN5KMime7MessageEENS_10UpdateModeE@Base 4:16.04.0
 _ZN13MessageViewer6Viewer10showReaderEPN5KMime7ContentEbRK7QString@Base 4:15.12
 _ZN13MessageViewer6Viewer10slotZoomInEv@Base 4:15.12
 _ZN13MessageViewer6Viewer10urlClickedERKN7Akonadi4ItemERK4QUrl@Base 4:15.12
 _ZN13MessageViewer6Viewer11changeEventEP6QEvent@Base 4:15.12
 _ZN13MessageViewer6Viewer11itemRemovedEv@Base 4:15.12
 _ZN13MessageViewer6Viewer11qt_metacallEN11QMetaObject4CallEiPPv@Base 4:15.12
 _ZN13MessageViewer6Viewer11qt_metacastEPKc@Base 4:15.12
 _ZN13MessageViewer6Viewer11resizeEventEP12QResizeEvent@Base 4:15.12
 _ZN13MessageViewer6Viewer11setPrintingEb@Base 4:15.12
 _ZN13MessageViewer6Viewer11showMessageERK14QSharedPointerIN5KMime7MessageEERK7QString@Base 4:15.12
 _ZN13MessageViewer6Viewer11slotZoomOutEv@Base 4:15.12
 _ZN13MessageViewer6Viewer11writeConfigEb@Base 4:15.12
 _ZN13MessageViewer6Viewer12configWidgetEv@Base 4:15.12
 _ZN13MessageViewer6Viewer12printMessageERKN7Akonadi4ItemE@Base 4:15.12
 _ZN13MessageViewer6Viewer12printPreviewEv@Base 4:15.12
 _ZN13MessageViewer6Viewer12slotJumpDownEv@Base 4:15.12
 _ZN13MessageViewer6Viewer12slotScrollUpEv@Base 4:15.12
 _ZN13MessageViewer6Viewer13deleteMessageERKN7Akonadi4ItemE@Base 4:15.12
 _ZN13MessageViewer6Viewer13deleteMessageEv@Base 4:15.12
 _ZN13MessageViewer6Viewer13setPluginNameERK7QString@Base 4:15.12
 _ZN13MessageViewer6Viewer13setZoomFactorEd@Base 4:15.12
 _ZN13MessageViewer6Viewer13slotZoomResetEv@Base 4:15.12
 _ZN13MessageViewer6Viewer14clearSelectionEv@Base 4:15.12
 _ZN13MessageViewer6Viewer14createFetchJobERKN7Akonadi4ItemE@Base 4:15.12
 _ZN13MessageViewer6Viewer14setMessageItemERKN7Akonadi4ItemENS_10UpdateModeE@Base 4:16.04.0
 _ZN13MessageViewer6Viewer14setMessagePartEPN5KMime7ContentE@Base 4:15.12
 _ZN13MessageViewer6Viewer14setMessagePathERK7QString@Base 4:15.12
 _ZN13MessageViewer6Viewer14slotScrollDownEv@Base 4:15.12
 _ZN13MessageViewer6Viewer14slotScrollNextEv@Base 4:15.12
 _ZN13MessageViewer6Viewer15setUseFixedFontEb@Base 4:15.12
 _ZN13MessageViewer6Viewer15setZoomTextOnlyEb@Base 4:15.12
 _ZN13MessageViewer6Viewer15slotSaveMessageEv@Base 4:15.12
 _ZN13MessageViewer6Viewer15slotScrollPriorEv@Base 4:15.12
 _ZN13MessageViewer6Viewer16staticMetaObjectE@Base 4:15.12
 _ZN13MessageViewer6Viewer17displaySplashPageERK7QStringRK5QHashIS1_8QVariantE@Base 4:15.12
 _ZN13MessageViewer6Viewer17executeMailActionENS0_10MailActionE@Base 4:16.04.0
 _ZN13MessageViewer6Viewer17requestConfigSyncEv@Base 4:15.12
 _ZN13MessageViewer6Viewer17setExternalWindowEb@Base 4:15.12
 _ZN13MessageViewer6Viewer18makeResourceOnlineENS0_18ResourceOnlineModeE@Base 4:15.12
 _ZN13MessageViewer6Viewer18moveMessageToTrashEv@Base 4:15.12
 _ZN13MessageViewer6Viewer19printPreviewMessageERKN7Akonadi4ItemE@Base 4:15.12
 _ZN13MessageViewer6Viewer19setOverrideEncodingERK7QString@Base 4:15.12
 _ZN13MessageViewer6Viewer20enableMessageDisplayEv@Base 4:15.12
 _ZN13MessageViewer6Viewer20showStatusBarMessageERK7QString@Base 4:15.12
 _ZN13MessageViewer6Viewer20slotAttachmentSaveAsEv@Base 4:15.12
 _ZN13MessageViewer6Viewer21setAttachmentStrategyEPKNS_18AttachmentStrategyE@Base 4:15.12
 _ZN13MessageViewer6Viewer21slotAttachmentSaveAllEv@Base 4:15.12
 _ZN13MessageViewer6Viewer21slotChangeDisplayMailENS0_20DisplayFormatMessageEb@Base 4:15.12
 _ZN13MessageViewer6Viewer21slotShowMessageSourceEv@Base 4:15.12
 _ZN13MessageViewer6Viewer22setHtmlLoadExtOverrideEb@Base 4:15.12
 _ZN13MessageViewer6Viewer22viewerPluginActionListE6QFlagsINS_21ViewerPluginInterface19SpecificFeatureTypeEE@Base 4:15.12
 _ZN13MessageViewer6Viewer23addMessageLoadedHandlerEPNS_28AbstractMessageLoadedHandlerE@Base 4:15.12
 _ZN13MessageViewer6Viewer24copySelectionToClipboardEv@Base 4:15.12
 _ZN13MessageViewer6Viewer26removeMessageLoadedHandlerEPNS_28AbstractMessageLoadedHandlerE@Base 4:15.12
 _ZN13MessageViewer6Viewer26setDecryptMessageOverwriteEb@Base 4:15.12
 _ZN13MessageViewer6Viewer29saveMainFrameScreenshotInFileERK7QString@Base 4:15.12
 _ZN13MessageViewer6Viewer30replaceMsgByUnencryptedVersionEv@Base 4:15.12
 _ZN13MessageViewer6Viewer30showOpenAttachmentFolderWidgetERK4QUrl@Base 4:15.12
 _ZN13MessageViewer6Viewer32setDisplayFormatMessageOverwriteENS0_20DisplayFormatMessageE@Base 4:15.12
 _ZN13MessageViewer6Viewer5clearENS_10UpdateModeE@Base 4:16.04.0
 _ZN13MessageViewer6Viewer5eventEP6QEvent@Base 4:15.12
 _ZN13MessageViewer6Viewer5printEv@Base 4:15.12
 _ZN13MessageViewer6Viewer6updateENS_10UpdateModeE@Base 4:16.04.0
 _ZN13MessageViewer6Viewer8slotFindEv@Base 4:15.12
 _ZN13MessageViewer6Viewer9popupMenuERKN7Akonadi4ItemERK4QUrlS7_RK6QPoint@Base 4:15.12
 _ZN13MessageViewer6Viewer9selectAllEv@Base 4:15.12
 _ZN13MessageViewer6ViewerC1EP7QWidgetS2_P17KActionCollection6QFlagsIN2Qt10WindowTypeEE@Base 4:15.12
 _ZN13MessageViewer6ViewerC2EP7QWidgetS2_P17KActionCollection6QFlagsIN2Qt10WindowTypeEE@Base 4:15.12
 _ZN13MessageViewer6ViewerD0Ev@Base 4:15.12
 _ZN13MessageViewer6ViewerD1Ev@Base 4:15.12
 _ZN13MessageViewer6ViewerD2Ev@Base 4:15.12
 _ZN13MessageViewer7WebPage11qt_metacallEN11QMetaObject4CallEiPPv@Base 4:16.04.0
 _ZN13MessageViewer7WebPage11qt_metacastEPKc@Base 4:16.04.0
 _ZN13MessageViewer7WebPage13setDoNotTrackEb@Base 4:16.04.0
 _ZN13MessageViewer7WebPage16staticMetaObjectE@Base 4:16.04.0
 _ZN13MessageViewer7WebPage23acceptNavigationRequestEP9QWebFrameRK15QNetworkRequestN8QWebPage14NavigationTypeE@Base 4:16.04.0
 _ZN13MessageViewer7WebPageC1EP7QWidget@Base 4:16.04.0
 _ZN13MessageViewer7WebPageC2EP7QWidget@Base 4:16.04.0
 _ZN13MessageViewer7WebPageD0Ev@Base 4:16.04.0
 _ZN13MessageViewer7WebPageD1Ev@Base 4:16.04.0
 _ZN13MessageViewer7WebPageD2Ev@Base 4:16.04.0
 _ZN13MessageViewer9CSSHelperC1EPK12QPaintDevice@Base 4:15.12
 _ZN13MessageViewer9CSSHelperC2EPK12QPaintDevice@Base 4:15.12
 _ZN13MessageViewer9CSSHelperD0Ev@Base 4:16.04.0
 _ZN13MessageViewer9CSSHelperD1Ev@Base 4:16.04.0
 _ZN13MessageViewer9CSSHelperD2Ev@Base 4:16.04.0
 _ZN13MessageViewer9Interface11MessagePart10htmlWriterEv@Base 4:16.04.0
 _ZN13MessageViewer9Interface11MessagePart4htmlEb@Base 4:16.04.0
 _ZN13MessageViewer9Interface11MessagePartC1ERKNS0_8BodyPartE@Base 4:16.04.0
 _ZN13MessageViewer9Interface11MessagePartC1Ev@Base 4:16.04.0
 _ZN13MessageViewer9Interface11MessagePartC2ERKNS0_8BodyPartE@Base 4:16.04.0
 _ZN13MessageViewer9Interface11MessagePartC2Ev@Base 4:16.04.0
 _ZN13MessageViewer9Interface11MessagePartD0Ev@Base 4:16.04.0
 _ZN13MessageViewer9Interface11MessagePartD1Ev@Base 4:16.04.0
 _ZN13MessageViewer9Interface11MessagePartD2Ev@Base 4:16.04.0
 (optional=templinst|arch=!arm64 !armel !armhf !powerpc !ppc64el !s390x)_ZN5KMime7Content6headerINS_7Headers7SubjectEEEPT_b@Base 4:15.12
 (optional=templinst)_ZN7Akonadi4Item14setPayloadImplI14QSharedPointerIN5KMime7MessageEEEENSt9enable_ifIXntsrNS_8Internal12PayloadTraitIT_EE13isPolymorphicEvE4typeERKS9_@Base 4:15.12
 (optional=templinst)_ZN7Akonadi4Item14setPayloadImplI14QSharedPointerIN8KCalCore9IncidenceEEEENSt9enable_ifIXntsrNS_8Internal12PayloadTraitIT_EE13isPolymorphicEvE4typeERKS9_@Base 4:15.12
 (optional=templinst)_ZNK12KConfigGroup9readEntryI10QByteArrayEET_PKcRKS2_@Base 4:15.12
 (optional=templinst)_ZNK12KConfigGroup9readEntryI5QFontEET_PKcRKS2_@Base 4:15.12
 (optional=templinst)_ZNK12KConfigGroup9readEntryI5QSizeEET_PKcRKS2_@Base 4:15.12
 (optional=templinst)_ZNK12KConfigGroup9readEntryI6QColorEET_PKcRKS2_@Base 4:15.12
 (optional=templinst|arch=!arm64)_ZNK12KConfigGroup9readEntryIbEET_PKcRKS1_@Base 4:15.12
 (optional=templinst|arch=!arm64)_ZNK12KConfigGroup9readEntryIiEET_PKcRKS1_@Base 4:15.12
 _ZNK13MessageViewer10NodeHelper10metaObjectEv@Base 4:15.12
 _ZNK13MessageViewer10NodeHelper13extraContentsEPN5KMime7ContentE@Base 4:15.12
 _ZNK13MessageViewer10NodeHelper13nodeProcessedEPN5KMime7ContentE@Base 4:15.12
 _ZNK13MessageViewer10NodeHelper14signatureStateEPN5KMime7ContentE@Base 4:15.12
 _ZNK13MessageViewer10NodeHelper15bodyPartMementoEPN5KMime7ContentERK10QByteArray@Base 4:15.12
 _ZNK13MessageViewer10NodeHelper15encryptionStateEPN5KMime7ContentE@Base 4:15.12
 _ZNK13MessageViewer10NodeHelper15persistentIndexEPKN5KMime7ContentE@Base 4:15.12
 _ZNK13MessageViewer10NodeHelper16contentFromIndexEPN5KMime7ContentERK7QString@Base 4:15.12
 _ZNK13MessageViewer10NodeHelper21isNodeDisplayedHiddenEPN5KMime7ContentE@Base 4:15.12
 _ZNK13MessageViewer10NodeHelper21overallSignatureStateEPN5KMime7ContentE@Base 4:15.12
 _ZNK13MessageViewer10NodeHelper22overallEncryptionStateEPN5KMime7ContentE@Base 4:15.12
 _ZNK13MessageViewer10NodeHelper23decryptedNodeForContentEPN5KMime7ContentE@Base 4:15.12
 _ZNK13MessageViewer10NodeHelper23isNodeDisplayedEmbeddedEPN5KMime7ContentE@Base 4:15.12
 _ZNK13MessageViewer10NodeHelper26attachmentsOfExtraContentsEv@Base 4:15.12
 _ZNK13MessageViewer10NodeHelper6asHREFEPKN5KMime7ContentERK7QString@Base 4:15.12
 _ZNK13MessageViewer10NodeHelper8fromHREFERK14QSharedPointerIN5KMime7MessageEERK4QUrl@Base 4:15.12
 _ZNK13MessageViewer11EmptySource10levelQuoteEv@Base 4:16.04.0
 _ZNK13MessageViewer11EmptySource13showEmoticonsEv@Base 4:16.04.0
 _ZNK13MessageViewer11EmptySource14autoImportKeysEv@Base 4:16.04.0
 _ZNK13MessageViewer11EmptySource14decryptMessageEv@Base 4:16.04.0
 _ZNK13MessageViewer11EmptySource16htmlLoadExternalEv@Base 4:16.04.0
 _ZNK13MessageViewer11EmptySource20showExpandQuotesMarkEv@Base 4:16.04.0
 _ZNK13MessageViewer11EmptySource20showSignatureDetailsEv@Base 4:16.04.0
 _ZNK13MessageViewer11EmptySource8htmlMailEv@Base 4:16.04.0
 _ZNK13MessageViewer11FindBarBase10metaObjectEv@Base 4:16.04.0
 _ZNK13MessageViewer11FindBarBase4textEv@Base 4:16.04.0
 _ZNK13MessageViewer11HeaderStyle10allowAsyncEv@Base 4:15.12
 _ZNK13MessageViewer11HeaderStyle10isPrintingEv@Base 4:15.12
 _ZNK13MessageViewer11HeaderStyle10isTopLevelEv@Base 4:15.12
 _ZNK13MessageViewer11HeaderStyle10nodeHelperEv@Base 4:15.12
 _ZNK13MessageViewer11HeaderStyle11messagePathEv@Base 4:15.12
 _ZNK13MessageViewer11HeaderStyle12sourceObjectEv@Base 4:15.12
 _ZNK13MessageViewer11HeaderStyle13messageStatusEv@Base 4:15.12
 _ZNK13MessageViewer11HeaderStyle14collectionNameEv@Base 4:16.04.0
 _ZNK13MessageViewer11HeaderStyle14headerStrategyEv@Base 4:15.12
 _ZNK13MessageViewer11HeaderStyle15readOnlyMessageEv@Base 4:16.04.0
 _ZNK13MessageViewer11HeaderStyle22hasAttachmentQuickListEv@Base 4:15.12
 _ZNK13MessageViewer11HeaderStyle5themeEv@Base 4:15.12
 _ZNK13MessageViewer11HeaderStyle9vCardNameEv@Base 4:15.12
 _ZNK13MessageViewer11MailWebView10htmlSourceEv@Base 4:15.12
 _ZNK13MessageViewer11MailWebView10metaObjectEv@Base 4:15.12
 _ZNK13MessageViewer11MailWebView16linkOrImageUrlAtERK6QPoint@Base 4:15.12
 _ZNK13MessageViewer11MailWebView16relativePositionEv@Base 4:15.12
 _ZNK13MessageViewer11MailWebView18isScrolledToBottomEv@Base 4:15.12
 _ZNK13MessageViewer11MailWebView20hasVerticalScrollBarEv@Base 4:15.12
 _ZNK13MessageViewer11MailWebView26isAttachmentInjectionPointERK6QPoint@Base 4:15.12
 _ZNK13MessageViewer12ViewerPlugin10metaObjectEv@Base 4:15.12
 _ZNK13MessageViewer13CSSHelperBase10quoteColorEi@Base 4:16.04.0
 _ZNK13MessageViewer13CSSHelperBase12pgpWarnColorEv@Base 4:15.12
 _ZNK13MessageViewer13CSSHelperBase12quoteFontTagEi@Base 4:15.12
 _ZNK13MessageViewer13CSSHelperBase14cssDefinitionsEb@Base 4:15.12
 _ZNK13MessageViewer13CSSHelperBase14quoteColorNameEi@Base 4:16.04.0
 _ZNK13MessageViewer13CSSHelperBase16addEndBlockQuoteEi@Base 4:16.04.0
 _ZNK13MessageViewer13CSSHelperBase16nonQuotedFontTagEv@Base 4:15.12
 _ZNK13MessageViewer13CSSHelperBase18addStartBlockQuoteEi@Base 4:16.04.0
 _ZNK13MessageViewer13CSSHelperBase18quoteCssDefinitionEv@Base 4:16.04.0
 _ZNK13MessageViewer13CSSHelperBase19printCssDefinitionsEb@Base 4:15.12
 _ZNK13MessageViewer13CSSHelperBase20commonCssDefinitionsEv@Base 4:15.12
 _ZNK13MessageViewer13CSSHelperBase20screenCssDefinitionsEPKS0_b@Base 4:15.12
 _ZNK13MessageViewer13CSSHelperBase8bodyFontEbb@Base 4:15.12
 _ZNK13MessageViewer13CSSHelperBase8fontSizeEbb@Base 4:15.12
 _ZNK13MessageViewer13CSSHelperBase8htmlHeadEb@Base 4:15.12
 _ZNK13MessageViewer13CreateNoteJob10metaObjectEv@Base 4:15.12
 _ZNK13MessageViewer13CreateTodoJob10metaObjectEv@Base 4:15.12
 _ZNK13MessageViewer13EditorWatcher10metaObjectEv@Base 4:15.12
 _ZNK13MessageViewer13EditorWatcher11fileChangedEv@Base 4:15.12
 _ZNK13MessageViewer13EditorWatcher3urlEv@Base 4:15.12
 _ZNK13MessageViewer13IconNameCache5EntryltERKS1_@Base 4:16.04.0
 _ZNK13MessageViewer13IconNameCache8iconPathERK7QStringi@Base 4:16.04.0
 _ZNK13MessageViewer13ProcessResult18neverDisplayInlineEv@Base 4:15.12
 _ZNK13MessageViewer13ProcessResult20inlineSignatureStateEv@Base 4:15.12
 _ZNK13MessageViewer13ProcessResult21inlineEncryptionStateEv@Base 4:15.12
 _ZNK13MessageViewer13ProcessResult24adjustCryptoStatesOfNodeEPN5KMime7ContentE@Base 4:15.12
 _ZNK13MessageViewer13ProcessResult7isImageEv@Base 4:15.12
 _ZNK13MessageViewer13ScamDetection10metaObjectEv@Base 4:15.12
 _ZNK13MessageViewer13ScamDetection17scamCheckShortUrlEv@Base 4:15.12
 _ZNK13MessageViewer14AdBlockManager10metaObjectEv@Base 4:16.04.0
 _ZNK13MessageViewer14CreateEventJob10metaObjectEv@Base 4:15.12
 _ZNK13MessageViewer14FindBarWebView10metaObjectEv@Base 4:16.04.0
 _ZNK13MessageViewer14HeaderStrategy10showHeaderERK7QString@Base 4:15.12
 _ZNK13MessageViewer14HeaderStrategy13headersToHideEv@Base 4:15.12
 _ZNK13MessageViewer14HeaderStrategy16headersToDisplayEv@Base 4:15.12
 _ZNK13MessageViewer14ZoomActionMenu10metaObjectEv@Base 4:16.04.0
 _ZNK13MessageViewer14ZoomActionMenu10zoomFactorEv@Base 4:16.04.0
 _ZNK13MessageViewer14ZoomActionMenu12zoomInActionEv@Base 4:16.04.0
 _ZNK13MessageViewer14ZoomActionMenu12zoomTextOnlyEv@Base 4:16.04.0
 _ZNK13MessageViewer14ZoomActionMenu13zoomOutActionEv@Base 4:16.04.0
 _ZNK13MessageViewer14ZoomActionMenu15zoomResetActionEv@Base 4:16.04.0
 _ZNK13MessageViewer14ZoomActionMenu18zoomTextOnlyActionEv@Base 4:16.04.0
 _ZNK13MessageViewer15ConfigureWidget10metaObjectEv@Base 4:15.12
 _ZNK13MessageViewer15HeaderStyleUtil10dateStringEPN5KMime7MessageEbNS0_25HeaderStyleUtilDateFormatE@Base 4:16.04.0
 _ZNK13MessageViewer15HeaderStyleUtil10mailActionENS_6Viewer10MailActionE@Base 4:16.04.0
 _ZNK13MessageViewer15HeaderStyleUtil10spamStatusEPN5KMime7MessageE@Base 4:16.04.0
 _ZNK13MessageViewer15HeaderStyleUtil11directionOfERK7QString@Base 4:16.04.0
 _ZNK13MessageViewer15HeaderStyleUtil12dateShortStrERK9QDateTime@Base 4:16.04.0
 _ZNK13MessageViewer15HeaderStyleUtil12imgToDataUrlERK6QImage@Base 4:16.04.0
 _ZNK13MessageViewer15HeaderStyleUtil12resentToListEPN5KMime7MessageE@Base 4:16.04.0
 _ZNK13MessageViewer15HeaderStyleUtil13drawSpamMeterENS_9SpamErrorEddRK7QStringS4_@Base 4:16.04.0
 _ZNK13MessageViewer15HeaderStyleUtil13subjectStringEPN5KMime7MessageE6QFlagsIN11KTextToHTML6OptionEE@Base 4:16.04.0
 _ZNK13MessageViewer15HeaderStyleUtil14resentFromListEPN5KMime7MessageE@Base 4:16.04.0
 _ZNK13MessageViewer15HeaderStyleUtil19updateXFaceSettingsE6QImageRNS0_13xfaceSettingsE@Base 4:16.04.0
 _ZNK13MessageViewer15HeaderStyleUtil22subjectDirectionStringEPN5KMime7MessageE@Base 4:16.04.0
 _ZNK13MessageViewer15HeaderStyleUtil5xfaceEPKNS_11HeaderStyleEPN5KMime7MessageE@Base 4:16.04.0
 _ZNK13MessageViewer15HeaderStyleUtil7dateStrERK9QDateTime@Base 4:16.04.0
 _ZNK13MessageViewer15HeaderStyleUtil9strToHtmlERK7QString6QFlagsIN11KTextToHTML6OptionEE@Base 4:16.04.0
 _ZNK13MessageViewer16ObjectTreeParser10allowAsyncEv@Base 4:15.12
 _ZNK13MessageViewer16ObjectTreeParser10htmlWriterEv@Base 4:15.12
 _ZNK13MessageViewer16ObjectTreeParser10nodeHelperEv@Base 4:15.12
 _ZNK13MessageViewer16ObjectTreeParser11htmlContentEv@Base 4:15.12
 _ZNK13MessageViewer16ObjectTreeParser14cryptoProtocolEv@Base 4:15.12
 _ZNK13MessageViewer16ObjectTreeParser16plainTextContentEv@Base 4:15.12
 _ZNK13MessageViewer16ObjectTreeParser18attachmentStrategyEv@Base 4:15.12
 _ZNK13MessageViewer16ObjectTreeParser18htmlContentCharsetEv@Base 4:15.12
 _ZNK13MessageViewer16ObjectTreeParser18looksLikeParaBreakERK7QStringj@Base 4:15.12
 _ZNK13MessageViewer16ObjectTreeParser19hasPendingAsyncJobsEv@Base 4:15.12
 _ZNK13MessageViewer16ObjectTreeParser19showOnlyOneMimePartEv@Base 4:15.12
 _ZNK13MessageViewer16ObjectTreeParser23plainTextContentCharsetEv@Base 4:15.12
 _ZNK13MessageViewer16ObjectTreeParser8codecForEPN5KMime7ContentE@Base 4:15.12
 _ZNK13MessageViewer16ObjectTreeParser8printingEv@Base 4:16.04.0
 _ZNK13MessageViewer16ObjectTreeParser9cssHelperEv@Base 4:15.12
 _ZNK13MessageViewer16PlainHeaderStyle23formatAllMessageHeadersEPN5KMime7MessageE@Base 4:15.12
 _ZNK13MessageViewer16PlainHeaderStyle4nameEv@Base 4:15.12
 _ZNK13MessageViewer16PlainHeaderStyle6formatEPN5KMime7MessageE@Base 4:15.12
 _ZNK13MessageViewer16PrintingSettings10metaObjectEv@Base 4:15.12
 _ZNK13MessageViewer16ScamExpandUrlJob10metaObjectEv@Base 4:16.04.0
 _ZNK13MessageViewer16WebViewAccessKey10metaObjectEv@Base 4:16.04.0
 _ZNK13MessageViewer17HeaderStylePlugin10metaObjectEv@Base 4:15.12
 _ZNK13MessageViewer17HeaderStylePlugin14elidedTextSizeEv@Base 4:15.12
 _ZNK13MessageViewer17HeaderStylePlugin9alignmentEv@Base 4:15.12
 _ZNK13MessageViewer17HeaderStylePlugin9hasMarginEv@Base 4:15.12
 _ZNK13MessageViewer17ScamCheckShortUrl10metaObjectEv@Base 4:15.12
 _ZNK13MessageViewer18AttachmentStrategy30requiresAttachmentListInHeaderEv@Base 4:15.12
 _ZNK13MessageViewer18InvitationSettings10helpAnchorEv@Base 4:15.12
 _ZNK13MessageViewer18InvitationSettings10metaObjectEv@Base 4:15.12
 _ZNK13MessageViewer19GrantleeHeaderStyle22hasAttachmentQuickListEv@Base 4:15.12
 _ZNK13MessageViewer19GrantleeHeaderStyle4nameEv@Base 4:15.12
 _ZNK13MessageViewer19GrantleeHeaderStyle6formatEPN5KMime7MessageE@Base 4:15.12
 _ZNK13MessageViewer19ViewerPluginManager10metaObjectEv@Base 4:15.12
 _ZNK13MessageViewer19ViewerPluginManager10pluginNameEv@Base 4:16.04.0
 _ZNK13MessageViewer19ViewerPluginManager11pluginsListEv@Base 4:15.12
 _ZNK13MessageViewer19ViewerPluginManager15serviceTypeNameEv@Base 4:16.04.0
 _ZNK13MessageViewer20AdBlockSettingWidget10metaObjectEv@Base 4:15.12
 _ZNK13MessageViewer20AdBlockSettingWidget7changedEv@Base 4:15.12
 _ZNK13MessageViewer20HeaderStyleInterface10metaObjectEv@Base 4:15.12
 _ZNK13MessageViewer20HeaderStyleInterface17headerStylePluginEv@Base 4:15.12
 _ZNK13MessageViewer20HeaderStyleInterface6actionEv@Base 4:15.12
 _ZNK13MessageViewer21MessageViewerSettings10metaObjectEv@Base 4:15.12
 _ZNK13MessageViewer21ViewerPluginInterface10metaObjectEv@Base 4:15.12
 _ZNK13MessageViewer21ViewerPluginInterface6actionEv@Base 4:15.12
 _ZNK13MessageViewer22HeaderStyleMenuManager10metaObjectEv@Base 4:15.12
 _ZNK13MessageViewer22HeaderStyleMenuManager4menuEv@Base 4:15.12
 _ZNK13MessageViewer22MarkMessageReadHandler10metaObjectEv@Base 4:15.12
 _ZNK13MessageViewer23GrantleeHeaderFormatter6formatERK7QStringRK14QSharedPointerIN8Grantlee12TemplateImplEERK11QStringListbPKNS_11HeaderStyleEPN5KMime7MessageE@Base 4:15.12
 _ZNK13MessageViewer23GrantleeHeaderFormatter6toHtmlERK11QStringListRK7QStringS6_PKNS_11HeaderStyleEPN5KMime7MessageEb@Base 4:15.12
 _ZNK13MessageViewer23GrantleeHeaderFormatter6toHtmlERKN13GrantleeTheme5ThemeEbPKNS_11HeaderStyleEPN5KMime7MessageE@Base 4:15.12
 _ZNK13MessageViewer23GrantleeHeaderTestStyle22hasAttachmentQuickListEv@Base 4:15.12
 _ZNK13MessageViewer23GrantleeHeaderTestStyle4nameEv@Base 4:15.12
 _ZNK13MessageViewer23GrantleeHeaderTestStyle6formatEPN5KMime7MessageE@Base 4:15.12
 _ZNK13MessageViewer23ViewerPluginToolManager10metaObjectEv@Base 4:15.12
 _ZNK13MessageViewer23ViewerPluginToolManager10pluginNameEv@Base 4:16.04.0
 _ZNK13MessageViewer23ViewerPluginToolManager15serviceTypeNameEv@Base 4:16.04.0
 _ZNK13MessageViewer23ViewerPluginToolManager22viewerPluginActionListE6QFlagsINS_21ViewerPluginInterface19SpecificFeatureTypeEE@Base 4:15.12
 _ZNK13MessageViewer24HeaderStylePluginManager10metaObjectEv@Base 4:15.12
 _ZNK13MessageViewer24HeaderStylePluginManager11pluginsListEv@Base 4:15.12
 _ZNK13MessageViewer24HeaderStylePluginManager14pluginListNameEv@Base 4:15.12
 _ZNK13MessageViewer24ScamCheckShortUrlManager10metaObjectEv@Base 4:16.04.0
 _ZNK13MessageViewer24ScamCheckShortUrlManager17scamCheckShortUrlEv@Base 4:16.04.0
 _ZNK13MessageViewer26ScamDetectionWarningWidget10metaObjectEv@Base 4:15.12
 _ZNK13MessageViewer27AdBlockBlockableItemsDialog10metaObjectEv@Base 4:16.04.0
 _ZNK13MessageViewer27AdBlockBlockableItemsWidget10metaObjectEv@Base 4:15.12
 _ZNK13MessageViewer28BodyPartFormatterBaseFactory15subtypeRegistryEPKc@Base 4:16.04.0
 _ZNK13MessageViewer28BodyPartFormatterBaseFactory17createForIteratorEPKcS2_@Base 4:16.04.0
 _ZNK13MessageViewer28BodyPartFormatterBaseFactory9createForEPKcS2_@Base 4:16.04.0
 _ZNK13MessageViewer28BodyPartFormatterBaseFactory9createForERK10QByteArrayS3_@Base 4:16.04.0
 _ZNK13MessageViewer28BodyPartFormatterBaseFactory9createForERK7QStringS3_@Base 4:16.04.0
 _ZNK13MessageViewer29MessageDisplayFormatAttribute10serializedEv@Base 4:15.12
 _ZNK13MessageViewer29MessageDisplayFormatAttribute13messageFormatEv@Base 4:15.12
 _ZNK13MessageViewer29MessageDisplayFormatAttribute13remoteContentEv@Base 4:15.12
 _ZNK13MessageViewer29MessageDisplayFormatAttribute4typeEv@Base 4:15.12
 _ZNK13MessageViewer29MessageDisplayFormatAttribute5cloneEv@Base 4:15.12
 _ZNK13MessageViewer29MessageDisplayFormatAttributeeqERKS0_@Base 4:15.12
 _ZNK13MessageViewer31AdBlockAutomaticRulesListWidget10metaObjectEv@Base 4:16.04.0
 _ZNK13MessageViewer31AdBlockAutomaticRulesListWidget13disabledRulesEv@Base 4:16.04.0
 _ZNK13MessageViewer6KXFace10metaObjectEv@Base 4:15.12
 _ZNK13MessageViewer6Viewer10blockImageEv@Base 4:15.12
 _ZNK13MessageViewer6Viewer10copyActionEv@Base 4:15.12
 _ZNK13MessageViewer6Viewer10metaObjectEv@Base 4:15.12
 _ZNK13MessageViewer6Viewer10urlClickedEv@Base 4:15.12
 _ZNK13MessageViewer6Viewer11isFixedFontEv@Base 4:15.12
 _ZNK13MessageViewer6Viewer11messageItemEv@Base 4:15.12
 _ZNK13MessageViewer6Viewer11messagePathEv@Base 4:15.12
 _ZNK13MessageViewer6Viewer12saveAsActionEv@Base 4:15.12
 _ZNK13MessageViewer6Viewer12selectedTextEv@Base 4:15.12
 _ZNK13MessageViewer6Viewer12zoomTextOnlyEv@Base 4:15.12
 _ZNK13MessageViewer6Viewer13copyURLActionEv@Base 4:15.12
 _ZNK13MessageViewer6Viewer13urlOpenActionEv@Base 4:15.12
 _ZNK13MessageViewer6Viewer14adblockEnabledEv@Base 4:15.12
 _ZNK13MessageViewer6Viewer15imageUrlClickedEv@Base 4:15.12
 _ZNK13MessageViewer6Viewer15selectAllActionEv@Base 4:15.12
 _ZNK13MessageViewer6Viewer15speakTextActionEv@Base 4:15.12
 _ZNK13MessageViewer6Viewer16htmlLoadExternalEv@Base 4:15.12
 _ZNK13MessageViewer6Viewer16messageTreeModelEv@Base 4:15.12
 _ZNK13MessageViewer6Viewer16overrideEncodingEv@Base 4:15.12
 _ZNK13MessageViewer6Viewer16viewSourceActionEv@Base 4:15.12
 _ZNK13MessageViewer6Viewer17copyImageLocationEv@Base 4:15.12
 _ZNK13MessageViewer6Viewer17headerStylePluginEv@Base 4:15.12
 _ZNK13MessageViewer6Viewer18attachmentStrategyEv@Base 4:15.12
 _ZNK13MessageViewer6Viewer18openBlockableItemsEv@Base 4:15.12
 _ZNK13MessageViewer6Viewer19findInMessageActionEv@Base 4:15.12
 _ZNK13MessageViewer6Viewer19htmlLoadExtOverrideEv@Base 4:15.12
 _ZNK13MessageViewer6Viewer19mimePartTreeIsEmptyEv@Base 4:15.12
 _ZNK13MessageViewer6Viewer19shareServiceUrlMenuEv@Base 4:15.12
 _ZNK13MessageViewer6Viewer19toggleFixFontActionEv@Base 4:15.12
 _ZNK13MessageViewer6Viewer24toggleMimePartTreeActionEv@Base 4:15.12
 _ZNK13MessageViewer6Viewer29displayFormatMessageOverwriteEv@Base 4:15.12
 _ZNK13MessageViewer6Viewer30saveMessageDisplayFormatActionEv@Base 4:15.12
 _ZNK13MessageViewer6Viewer31resetMessageDisplayFormatActionEv@Base 4:15.12
 _ZNK13MessageViewer6Viewer7messageEv@Base 4:15.12
 _ZNK13MessageViewer6Viewer8atBottomEv@Base 4:15.12
 _ZNK13MessageViewer6Viewer8htmlMailEv@Base 4:15.12
 _ZNK13MessageViewer6Viewer9cssHelperEv@Base 4:15.12
 _ZNK13MessageViewer7WebPage10loadingUrlEv@Base 4:16.04.0
 _ZNK13MessageViewer7WebPage10metaObjectEv@Base 4:16.04.0
 _ZNK13MessageViewer9CSSHelper8htmlHeadEb@Base 4:15.12
 _ZNK13MessageViewer9Interface11MessagePart4textEv@Base 4:16.04.0
 _ZNK13MessageViewer9Interface17BodyPartFormatter7processERNS0_8BodyPartE@Base 4:16.04.0
 (optional=templinst)_ZNK7Akonadi4Item10hasPayloadI14QSharedPointerIN5KMime7MessageEEEEbv@Base 4:15.12
 (optional=templinst)_ZNK7Akonadi4Item11payloadImplI14QSharedPointerIN5KMime7MessageEEEENSt9enable_ifIXntsrNS_8Internal12PayloadTraitIT_EE13isPolymorphicES9_E4typeEv@Base 4:15.12
 (optional=templinst)_ZNK7Akonadi4Item14hasPayloadImplI14QSharedPointerIN5KMime7MessageEEEENSt9enable_ifIXntsrNS_8Internal12PayloadTraitIT_EE13isPolymorphicEbE4typeEv@Base 4:15.12
 (optional=templinst)_ZNK7Akonadi4Item14tryToCloneImplI14QSharedPointerIN5KMime7MessageEESt10shared_ptrIS4_EEENSt9enable_ifIXntsrSt7is_sameIT_T0_E5valueEbE4typeEPSA_PKi@Base 4:15.12
 (optional=templinst)_ZNK7Akonadi4Item7payloadI14QSharedPointerIN5KMime7MessageEEEET_v@Base 4:15.12
 (optional=templinst)_ZNSt6vectorIN5GpgME3KeyESaIS1_EED1Ev@Base 4:15.12
 (optional=templinst)_ZNSt6vectorIN5GpgME3KeyESaIS1_EED2Ev@Base 4:15.12
 (optional=templinst)_ZNSt6vectorIN5GpgME6ImportESaIS1_EED1Ev@Base 4:15.12
 (optional=templinst)_ZNSt6vectorIN5GpgME6ImportESaIS1_EED2Ev@Base 4:15.12
 (optional=templinst)_ZNSt6vectorIN5GpgME9SignatureESaIS1_EED1Ev@Base 4:15.12
 (optional=templinst)_ZNSt6vectorIN5GpgME9SignatureESaIS1_EED2Ev@Base 4:15.12
 _ZTIN13MessageViewer10NodeHelperE@Base 4:15.12
 _ZTIN13MessageViewer11EmptySourceE@Base 4:15.12
 _ZTIN13MessageViewer11FindBarBaseE@Base 4:16.04.0
 _ZTIN13MessageViewer11HeaderStyleE@Base 4:15.12
 _ZTIN13MessageViewer11MailWebViewE@Base 4:15.12
 _ZTIN13MessageViewer12ViewerPluginE@Base 4:15.12
 _ZTIN13MessageViewer13CSSHelperBaseE@Base 4:16.04.0
 _ZTIN13MessageViewer13CreateNoteJobE@Base 4:15.12
 _ZTIN13MessageViewer13CreateTodoJobE@Base 4:15.12
 _ZTIN13MessageViewer13EditorWatcherE@Base 4:15.12
 _ZTIN13MessageViewer13ScamDetectionE@Base 4:15.12
 _ZTIN13MessageViewer14AdBlockManagerE@Base 4:16.04.0
 _ZTIN13MessageViewer14CreateEventJobE@Base 4:15.12
 _ZTIN13MessageViewer14FileHtmlWriterE@Base 4:15.12
 _ZTIN13MessageViewer14FindBarWebViewE@Base 4:16.04.0
 _ZTIN13MessageViewer14HeaderStrategyE@Base 4:15.12
 _ZTIN13MessageViewer14ZoomActionMenuE@Base 4:16.04.0
 _ZTIN13MessageViewer15ConfigureWidgetE@Base 4:15.12
 _ZTIN13MessageViewer15QueueHtmlWriterE@Base 4:15.12
 _ZTIN13MessageViewer16ObjectTreeParserE@Base 4:15.12
 _ZTIN13MessageViewer16PlainHeaderStyleE@Base 4:15.12
 _ZTIN13MessageViewer16PrintingSettingsE@Base 4:15.12
 _ZTIN13MessageViewer16ScamExpandUrlJobE@Base 4:16.04.0
 _ZTIN13MessageViewer16WebViewAccessKeyE@Base 4:16.04.0
 _ZTIN13MessageViewer17HeaderStylePluginE@Base 4:15.12
 _ZTIN13MessageViewer17ScamCheckShortUrlE@Base 4:15.12
 _ZTIN13MessageViewer18AttachmentStrategyE@Base 4:15.12
 _ZTIN13MessageViewer18InvitationSettingsE@Base 4:15.12
 _ZTIN13MessageViewer18ObjectTreeSourceIfE@Base 4:15.12
 _ZTIN13MessageViewer18RichHeaderStrategyE@Base 4:15.12
 _ZTIN13MessageViewer19GrantleeHeaderStyleE@Base 4:15.12
 _ZTIN13MessageViewer19ViewerPluginManagerE@Base 4:15.12
 _ZTIN13MessageViewer20AdBlockSettingWidgetE@Base 4:15.12
 _ZTIN13MessageViewer20HeaderStyleInterfaceE@Base 4:15.12
 _ZTIN13MessageViewer21MessageViewerSettingsE@Base 4:15.12
 _ZTIN13MessageViewer21ViewerPluginInterfaceE@Base 4:15.12
 _ZTIN13MessageViewer22HeaderStyleMenuManagerE@Base 4:15.12
 _ZTIN13MessageViewer22MarkMessageReadHandlerE@Base 4:15.12
 _ZTIN13MessageViewer23GrantleeHeaderTestStyleE@Base 4:15.12
 _ZTIN13MessageViewer23ViewerPluginToolManagerE@Base 4:15.12
 _ZTIN13MessageViewer24BodyPartFormatterFactoryE@Base 4:16.04.0
 _ZTIN13MessageViewer24HeaderStylePluginManagerE@Base 4:15.12
 _ZTIN13MessageViewer24ScamCheckShortUrlManagerE@Base 4:16.04.0
 _ZTIN13MessageViewer25MessageViewerSettingsBaseE@Base 4:15.12
 _ZTIN13MessageViewer26ScamDetectionWarningWidgetE@Base 4:15.12
 _ZTIN13MessageViewer27AdBlockBlockableItemsDialogE@Base 4:16.04.0
 _ZTIN13MessageViewer27AdBlockBlockableItemsWidgetE@Base 4:15.12
 _ZTIN13MessageViewer28BodyPartFormatterBaseFactoryE@Base 4:16.04.0
 _ZTIN13MessageViewer29MessageDisplayFormatAttributeE@Base 4:15.12
 _ZTIN13MessageViewer31AdBlockAutomaticRulesListWidgetE@Base 4:16.04.0
 _ZTIN13MessageViewer6KXFaceE@Base 4:15.12
 _ZTIN13MessageViewer6ViewerE@Base 4:15.12
 _ZTIN13MessageViewer7WebPageE@Base 4:16.04.0
 _ZTIN13MessageViewer9CSSHelperE@Base 4:16.04.0
 _ZTIN13MessageViewer9Interface11MessagePartE@Base 4:16.04.0
 _ZTIN13MessageViewer9Interface17BodyPartFormatterE@Base 4:16.04.0
 _ZTIN5boost16exception_detail10clone_baseE@Base 4:15.12
 _ZTIN5boost9exceptionE@Base 4:15.12
 _ZTSN13MessageViewer10NodeHelperE@Base 4:15.12
 _ZTSN13MessageViewer11EmptySourceE@Base 4:15.12
 _ZTSN13MessageViewer11FindBarBaseE@Base 4:16.04.0
 _ZTSN13MessageViewer11HeaderStyleE@Base 4:15.12
 _ZTSN13MessageViewer11MailWebViewE@Base 4:15.12
 _ZTSN13MessageViewer12ViewerPluginE@Base 4:15.12
 _ZTSN13MessageViewer13CSSHelperBaseE@Base 4:16.04.0
 _ZTSN13MessageViewer13CreateNoteJobE@Base 4:15.12
 _ZTSN13MessageViewer13CreateTodoJobE@Base 4:15.12
 _ZTSN13MessageViewer13EditorWatcherE@Base 4:15.12
 _ZTSN13MessageViewer13ScamDetectionE@Base 4:15.12
 _ZTSN13MessageViewer14AdBlockManagerE@Base 4:16.04.0
 _ZTSN13MessageViewer14CreateEventJobE@Base 4:15.12
 _ZTSN13MessageViewer14FileHtmlWriterE@Base 4:15.12
 _ZTSN13MessageViewer14FindBarWebViewE@Base 4:16.04.0
 _ZTSN13MessageViewer14HeaderStrategyE@Base 4:15.12
 _ZTSN13MessageViewer14ZoomActionMenuE@Base 4:16.04.0
 _ZTSN13MessageViewer15ConfigureWidgetE@Base 4:15.12
 _ZTSN13MessageViewer15QueueHtmlWriterE@Base 4:15.12
 _ZTSN13MessageViewer16ObjectTreeParserE@Base 4:15.12
 _ZTSN13MessageViewer16PlainHeaderStyleE@Base 4:15.12
 _ZTSN13MessageViewer16PrintingSettingsE@Base 4:15.12
 _ZTSN13MessageViewer16ScamExpandUrlJobE@Base 4:16.04.0
 _ZTSN13MessageViewer16WebViewAccessKeyE@Base 4:16.04.0
 _ZTSN13MessageViewer17HeaderStylePluginE@Base 4:15.12
 _ZTSN13MessageViewer17ScamCheckShortUrlE@Base 4:15.12
 _ZTSN13MessageViewer18AttachmentStrategyE@Base 4:15.12
 _ZTSN13MessageViewer18InvitationSettingsE@Base 4:15.12
 _ZTSN13MessageViewer18ObjectTreeSourceIfE@Base 4:15.12
 _ZTSN13MessageViewer18RichHeaderStrategyE@Base 4:15.12
 _ZTSN13MessageViewer19GrantleeHeaderStyleE@Base 4:15.12
 _ZTSN13MessageViewer19ViewerPluginManagerE@Base 4:15.12
 _ZTSN13MessageViewer20AdBlockSettingWidgetE@Base 4:15.12
 _ZTSN13MessageViewer20HeaderStyleInterfaceE@Base 4:15.12
 _ZTSN13MessageViewer21MessageViewerSettingsE@Base 4:15.12
 _ZTSN13MessageViewer21ViewerPluginInterfaceE@Base 4:15.12
 _ZTSN13MessageViewer22HeaderStyleMenuManagerE@Base 4:15.12
 _ZTSN13MessageViewer22MarkMessageReadHandlerE@Base 4:15.12
 _ZTSN13MessageViewer23GrantleeHeaderTestStyleE@Base 4:15.12
 _ZTSN13MessageViewer23ViewerPluginToolManagerE@Base 4:15.12
 _ZTSN13MessageViewer24BodyPartFormatterFactoryE@Base 4:16.04.0
 _ZTSN13MessageViewer24HeaderStylePluginManagerE@Base 4:15.12
 _ZTSN13MessageViewer24ScamCheckShortUrlManagerE@Base 4:16.04.0
 _ZTSN13MessageViewer25MessageViewerSettingsBaseE@Base 4:15.12
 _ZTSN13MessageViewer26ScamDetectionWarningWidgetE@Base 4:15.12
 _ZTSN13MessageViewer27AdBlockBlockableItemsDialogE@Base 4:16.04.0
 _ZTSN13MessageViewer27AdBlockBlockableItemsWidgetE@Base 4:15.12
 _ZTSN13MessageViewer28BodyPartFormatterBaseFactoryE@Base 4:16.04.0
 _ZTSN13MessageViewer29MessageDisplayFormatAttributeE@Base 4:15.12
 _ZTSN13MessageViewer31AdBlockAutomaticRulesListWidgetE@Base 4:16.04.0
 _ZTSN13MessageViewer6KXFaceE@Base 4:15.12
 _ZTSN13MessageViewer6ViewerE@Base 4:15.12
 _ZTSN13MessageViewer7WebPageE@Base 4:16.04.0
 _ZTSN13MessageViewer9CSSHelperE@Base 4:16.04.0
 _ZTSN13MessageViewer9Interface11MessagePartE@Base 4:16.04.0
 _ZTSN13MessageViewer9Interface17BodyPartFormatterE@Base 4:16.04.0
 _ZTSN5boost16exception_detail10clone_baseE@Base 4:15.12
 _ZTSN5boost9exceptionE@Base 4:15.12
 _ZTVN13MessageViewer10NodeHelperE@Base 4:15.12
 _ZTVN13MessageViewer11EmptySourceE@Base 4:15.12
 _ZTVN13MessageViewer11FindBarBaseE@Base 4:16.04.0
 _ZTVN13MessageViewer11HeaderStyleE@Base 4:15.12
 _ZTVN13MessageViewer11MailWebViewE@Base 4:15.12
 _ZTVN13MessageViewer12ViewerPluginE@Base 4:15.12
 _ZTVN13MessageViewer13CSSHelperBaseE@Base 4:16.04.0
 _ZTVN13MessageViewer13CreateNoteJobE@Base 4:15.12
 _ZTVN13MessageViewer13CreateTodoJobE@Base 4:15.12
 _ZTVN13MessageViewer13EditorWatcherE@Base 4:15.12
 _ZTVN13MessageViewer13ScamDetectionE@Base 4:15.12
 _ZTVN13MessageViewer14AdBlockManagerE@Base 4:16.04.0
 _ZTVN13MessageViewer14CreateEventJobE@Base 4:15.12
 _ZTVN13MessageViewer14FileHtmlWriterE@Base 4:15.12
 _ZTVN13MessageViewer14FindBarWebViewE@Base 4:16.04.0
 _ZTVN13MessageViewer14HeaderStrategyE@Base 4:15.12
 _ZTVN13MessageViewer14ZoomActionMenuE@Base 4:16.04.0
 _ZTVN13MessageViewer15ConfigureWidgetE@Base 4:15.12
 _ZTVN13MessageViewer15QueueHtmlWriterE@Base 4:15.12
 _ZTVN13MessageViewer16ObjectTreeParserE@Base 4:15.12
 _ZTVN13MessageViewer16PlainHeaderStyleE@Base 4:15.12
 _ZTVN13MessageViewer16PrintingSettingsE@Base 4:15.12
 _ZTVN13MessageViewer16ScamExpandUrlJobE@Base 4:16.04.0
 _ZTVN13MessageViewer16WebViewAccessKeyE@Base 4:16.04.0
 _ZTVN13MessageViewer17HeaderStylePluginE@Base 4:15.12
 _ZTVN13MessageViewer17ScamCheckShortUrlE@Base 4:15.12
 _ZTVN13MessageViewer18AttachmentStrategyE@Base 4:15.12
 _ZTVN13MessageViewer18InvitationSettingsE@Base 4:15.12
 _ZTVN13MessageViewer18RichHeaderStrategyE@Base 4:15.12
 _ZTVN13MessageViewer19GrantleeHeaderStyleE@Base 4:15.12
 _ZTVN13MessageViewer19ViewerPluginManagerE@Base 4:15.12
 _ZTVN13MessageViewer20AdBlockSettingWidgetE@Base 4:15.12
 _ZTVN13MessageViewer20HeaderStyleInterfaceE@Base 4:15.12
 _ZTVN13MessageViewer21MessageViewerSettingsE@Base 4:15.12
 _ZTVN13MessageViewer21ViewerPluginInterfaceE@Base 4:15.12
 _ZTVN13MessageViewer22HeaderStyleMenuManagerE@Base 4:15.12
 _ZTVN13MessageViewer22MarkMessageReadHandlerE@Base 4:15.12
 _ZTVN13MessageViewer23GrantleeHeaderTestStyleE@Base 4:15.12
 _ZTVN13MessageViewer23ViewerPluginToolManagerE@Base 4:15.12
 _ZTVN13MessageViewer24BodyPartFormatterFactoryE@Base 4:16.04.0
 _ZTVN13MessageViewer24HeaderStylePluginManagerE@Base 4:15.12
 _ZTVN13MessageViewer24ScamCheckShortUrlManagerE@Base 4:16.04.0
 _ZTVN13MessageViewer25MessageViewerSettingsBaseE@Base 4:15.12
 _ZTVN13MessageViewer26ScamDetectionWarningWidgetE@Base 4:15.12
 _ZTVN13MessageViewer27AdBlockBlockableItemsDialogE@Base 4:16.04.0
 _ZTVN13MessageViewer27AdBlockBlockableItemsWidgetE@Base 4:15.12
 _ZTVN13MessageViewer28BodyPartFormatterBaseFactoryE@Base 4:16.04.0
 _ZTVN13MessageViewer29MessageDisplayFormatAttributeE@Base 4:15.12
 _ZTVN13MessageViewer31AdBlockAutomaticRulesListWidgetE@Base 4:16.04.0
 _ZTVN13MessageViewer6KXFaceE@Base 4:15.12
 _ZTVN13MessageViewer6ViewerE@Base 4:15.12
 _ZTVN13MessageViewer7WebPageE@Base 4:16.04.0
 _ZTVN13MessageViewer9CSSHelperE@Base 4:16.04.0
 _ZTVN13MessageViewer9Interface11MessagePartE@Base 4:16.04.0
 _ZTVN13MessageViewer9Interface17BodyPartFormatterE@Base 4:16.04.0
 _ZTVN5boost16exception_detail10clone_baseE@Base 4:15.12
 _ZTVN5boost9exceptionE@Base 4:15.12
 _ZZZN11MessageCore23MessageCoreSettingsBase28setOverrideCharacterEncodingERK7QStringENKUlvE_clEvE15qstring_literal@Base 4:15.12
 _ZZZN13MessageViewer25MessageViewerSettingsBase15setMimeTreeModeEiENKUlvE_clEvE15qstring_literal@Base 4:15.12
 _ZZZN13MessageViewer25MessageViewerSettingsBase15setUseFixedFontEbENKUlvE_clEvE15qstring_literal@Base 4:15.12
 _ZZZN13MessageViewer25MessageViewerSettingsBase15setZoomTextOnlyEbENKUlvE_clEvE15qstring_literal@Base 4:15.12
 _ZZZN13MessageViewer25MessageViewerSettingsBase17setMimePaneHeightEiENKUlvE_clEvE15qstring_literal@Base 4:15.12
 _ZZZN13MessageViewer25MessageViewerSettingsBase20setMessagePaneHeightEiENKUlvE_clEvE15qstring_literal@Base 4:15.12
 _ZZZN13MessageViewer25MessageViewerSettingsBase21setAttachmentStrategyERK7QStringENKUlvE_clEvE15qstring_literal@Base 4:15.12
 _ZZZN13MessageViewer25MessageViewerSettingsBase23setScamDetectionEnabledEbENKUlvE_clEvE15qstring_literal@Base 4:15.12
 _ZZZN13MessageViewer25MessageViewerSettingsBase24setHeaderPluginStyleNameERK7QStringENKUlvE_clEvE15qstring_literal@Base 4:15.12
 _ZZZN13MessageViewer25MessageViewerSettingsBase25setScamDetectionWhiteListERK11QStringListENKUlvE_clEvE15qstring_literal@Base 4:15.12
 (c++)"non-virtual thunk to MessageViewer::AdBlockAutomaticRulesListWidget::~AdBlockAutomaticRulesListWidget()@Base" 4:16.04.0
 (c++)"non-virtual thunk to MessageViewer::AdBlockBlockableItemsDialog::~AdBlockBlockableItemsDialog()@Base" 4:16.04.0
 (c++)"non-virtual thunk to MessageViewer::AdBlockBlockableItemsWidget::~AdBlockBlockableItemsWidget()@Base" 4:15.12
 (c++)"non-virtual thunk to MessageViewer::AdBlockSettingWidget::~AdBlockSettingWidget()@Base" 4:16.04.0
 (c++)"non-virtual thunk to MessageViewer::ConfigureWidget::~ConfigureWidget()@Base" 4:15.12
 (c++)"non-virtual thunk to MessageViewer::FindBarBase::~FindBarBase()@Base" 4:16.04.0
 (c++)"non-virtual thunk to MessageViewer::FindBarWebView::~FindBarWebView()@Base" 4:16.04.0
 (c++)"non-virtual thunk to MessageViewer::InvitationSettings::~InvitationSettings()@Base" 4:15.12
 (c++)"non-virtual thunk to MessageViewer::MailWebView::~MailWebView()@Base" 4:15.12
 (c++)"non-virtual thunk to MessageViewer::MarkMessageReadHandler::setItem(Akonadi::Item const&)@Base" 4:15.12
 (c++)"non-virtual thunk to MessageViewer::MarkMessageReadHandler::~MarkMessageReadHandler()@Base" 4:15.12
 (c++)"non-virtual thunk to MessageViewer::PrintingSettings::~PrintingSettings()@Base" 4:15.12
 (c++)"non-virtual thunk to MessageViewer::ScamDetectionWarningWidget::~ScamDetectionWarningWidget()@Base" 4:15.12
 (c++)"non-virtual thunk to MessageViewer::Viewer::~Viewer()@Base" 4:15.12
