# SymbolsHelper-Confirmed: 4:16.04.2 armhf
libKF5MessageList.so.5 libkf5messagelist5 #MINVER#
 (arch=!armel !armhf)_ZN11KIconEngineD0Ev@Base 4:16.04.0
 (arch=!armel !armhf)_ZN11KIconEngineD1Ev@Base 4:16.04.0
 (arch=!armel !armhf)_ZN11KIconEngineD2Ev@Base 4:16.04.0
 _ZN11MessageList12StorageModel11qt_metacallEN11QMetaObject4CallEiPPv@Base 4:15.12
 _ZN11MessageList12StorageModel11qt_metacastEPKc@Base 4:15.12
 _ZN11MessageList12StorageModel14prepareForScanEv@Base 4:15.12
 _ZN11MessageList12StorageModel16staticMetaObjectE@Base 4:15.12
 _ZN11MessageList12StorageModel17resetModelStorageEv@Base 4:15.12
 _ZN11MessageList12StorageModel20setMessageItemStatusEPNS_4Core11MessageItemEiN7Akonadi13MessageStatusE@Base 4:15.12
 _ZN11MessageList12StorageModelC1EP18QAbstractItemModelP19QItemSelectionModelP7QObject@Base 4:15.12
 _ZN11MessageList12StorageModelC2EP18QAbstractItemModelP19QItemSelectionModelP7QObject@Base 4:15.12
 _ZN11MessageList12StorageModelD0Ev@Base 4:15.12
 _ZN11MessageList12StorageModelD1Ev@Base 4:15.12
 _ZN11MessageList12StorageModelD2Ev@Base 4:15.12
 _ZN11MessageList19MessageListSettings11tagSelectedEv@Base 4:15.12
 _ZN11MessageList19MessageListSettings14setTagSelectedERK7QString@Base 4:15.12
 _ZN11MessageList19MessageListSettings15messageListFontEv@Base 4:15.12
 _ZN11MessageList19MessageListSettings15showQuickSearchEv@Base 4:15.12
 _ZN11MessageList19MessageListSettings15tagSelectedItemEv@Base 4:15.12
 _ZN11MessageList19MessageListSettings15todoMessageFontEv@Base 4:15.12
 _ZN11MessageList19MessageListSettings16todoMessageColorEv@Base 4:15.12
 _ZN11MessageList19MessageListSettings17unreadMessageFontEv@Base 4:15.12
 _ZN11MessageList19MessageListSettings18setMessageListFontERK5QFont@Base 4:15.12
 _ZN11MessageList19MessageListSettings18setShowQuickSearchEb@Base 4:15.12
 _ZN11MessageList19MessageListSettings18setTodoMessageFontERK5QFont@Base 4:15.12
 _ZN11MessageList19MessageListSettings18unreadMessageColorEv@Base 4:15.12
 _ZN11MessageList19MessageListSettings19messageListFontItemEv@Base 4:15.12
 _ZN11MessageList19MessageListSettings19setTodoMessageColorERK6QColor@Base 4:15.12
 _ZN11MessageList19MessageListSettings19showQuickSearchItemEv@Base 4:15.12
 _ZN11MessageList19MessageListSettings19tabsHaveCloseButtonEv@Base 4:15.12
 _ZN11MessageList19MessageListSettings19todoMessageFontItemEv@Base 4:15.12
 _ZN11MessageList19MessageListSettings20importantMessageFontEv@Base 4:15.12
 _ZN11MessageList19MessageListSettings20setUnreadMessageFontERK5QFont@Base 4:15.12
 _ZN11MessageList19MessageListSettings20todoMessageColorItemEv@Base 4:15.12
 _ZN11MessageList19MessageListSettings21importantMessageColorEv@Base 4:15.12
 _ZN11MessageList19MessageListSettings21messageToolTipEnabledEv@Base 4:15.12
 _ZN11MessageList19MessageListSettings21setUnreadMessageColorERK6QColor@Base 4:15.12
 _ZN11MessageList19MessageListSettings21unreadMessageFontItemEv@Base 4:15.12
 _ZN11MessageList19MessageListSettings22setTabsHaveCloseButtonEb@Base 4:15.12
 _ZN11MessageList19MessageListSettings22unreadMessageColorItemEv@Base 4:15.12
 _ZN11MessageList19MessageListSettings23setImportantMessageFontERK5QFont@Base 4:15.12
 _ZN11MessageList19MessageListSettings23tabsHaveCloseButtonItemEv@Base 4:15.12
 _ZN11MessageList19MessageListSettings24importantMessageFontItemEv@Base 4:15.12
 _ZN11MessageList19MessageListSettings24setImportantMessageColorERK6QColor@Base 4:15.12
 _ZN11MessageList19MessageListSettings24setMessageToolTipEnabledEb@Base 4:15.12
 _ZN11MessageList19MessageListSettings25importantMessageColorItemEv@Base 4:15.12
 _ZN11MessageList19MessageListSettings25messageToolTipEnabledItemEv@Base 4:15.12
 _ZN11MessageList19MessageListSettings27autoHideTabBarWithSingleTabEv@Base 4:15.12
 _ZN11MessageList19MessageListSettings30setAutoHideTabBarWithSingleTabEb@Base 4:15.12
 _ZN11MessageList19MessageListSettings31autoHideTabBarWithSingleTabItemEv@Base 4:15.12
 _ZN11MessageList19MessageListSettings32quickSearchWarningDoNotShowAgainEv@Base 4:15.12
 _ZN11MessageList19MessageListSettings35setQuickSearchWarningDoNotShowAgainEb@Base 4:15.12
 _ZN11MessageList19MessageListSettings36quickSearchWarningDoNotShowAgainItemEv@Base 4:15.12
 _ZN11MessageList19MessageListSettings4selfEv@Base 4:15.12
 _ZN11MessageList19MessageListSettingsC1Ev@Base 4:15.12
 _ZN11MessageList19MessageListSettingsC2Ev@Base 4:15.12
 _ZN11MessageList19MessageListSettingsD0Ev@Base 4:15.12
 _ZN11MessageList19MessageListSettingsD1Ev@Base 4:15.12
 _ZN11MessageList19MessageListSettingsD2Ev@Base 4:15.12
 _ZN11MessageList4Core11MessageItem13subTreeToListER5QListIPS1_E@Base 4:15.12
 _ZN11MessageList4Core11MessageItem14accessibleTextEPKNS0_5ThemeEi@Base 4:15.12
 _ZN11MessageList4Core11MessageItem14editAnnotationEv@Base 4:15.12
 _ZN11MessageList4Core11MessageItem14setAkonadiItemERKN7Akonadi4ItemE@Base 4:15.12
 _ZN11MessageList4Core11MessageItem14setGeneralFontERK5QFont@Base 4:15.12
 _ZN11MessageList4Core11MessageItem14topmostMessageEv@Base 4:15.12
 _ZN11MessageList4Core11MessageItem15setMessageIdMD5ERK10QByteArray@Base 4:15.12
 _ZN11MessageList4Core11MessageItem17setInReplyToIdMD5ERK10QByteArray@Base 4:15.12
 _ZN11MessageList4Core11MessageItem17setSignatureStateENS1_14SignatureStateE@Base 4:15.12
 _ZN11MessageList4Core11MessageItem18invalidateTagCacheEv@Base 4:15.12
 _ZN11MessageList4Core11MessageItem18setEncryptionStateENS1_15EncryptionStateE@Base 4:15.12
 _ZN11MessageList4Core11MessageItem18setReferencesIdMD5ERK10QByteArray@Base 4:15.12
 _ZN11MessageList4Core11MessageItem18setThreadingStatusENS1_15ThreadingStatusE@Base 4:15.12
 _ZN11MessageList4Core11MessageItem18setToDoMessageFontERK5QFont@Base 4:15.12
 _ZN11MessageList4Core11MessageItem19setAboutToBeRemovedEb@Base 4:15.12
 _ZN11MessageList4Core11MessageItem19setToDoMessageColorERK6QColor@Base 4:15.12
 _ZN11MessageList4Core11MessageItem20setSubjectIsPrefixedEb@Base 4:15.12
 _ZN11MessageList4Core11MessageItem20setUnreadMessageFontERK5QFont@Base 4:15.12
 _ZN11MessageList4Core11MessageItem21setStrippedSubjectMD5ERK10QByteArray@Base 4:15.12
 _ZN11MessageList4Core11MessageItem21setUnreadMessageColorERK6QColor@Base 4:15.12
 _ZN11MessageList4Core11MessageItem22accessibleTextForFieldENS0_5Theme11ContentItem4TypeE@Base 4:15.12
 _ZN11MessageList4Core11MessageItem23setImportantMessageFontERK5QFont@Base 4:15.12
 _ZN11MessageList4Core11MessageItem24setImportantMessageColorERK6QColor@Base 4:15.12
 _ZN11MessageList4Core11MessageItem25invalidateAnnotationCacheEv@Base 4:15.12
 _ZN11MessageList4Core11MessageItem3Tag11setPriorityEi@Base 4:15.12
 _ZN11MessageList4Core11MessageItem3Tag12setTextColorERK6QColor@Base 4:15.12
 _ZN11MessageList4Core11MessageItem3Tag18setBackgroundColorERK6QColor@Base 4:15.12
 _ZN11MessageList4Core11MessageItem3Tag7setFontERK5QFont@Base 4:15.12
 _ZN11MessageList4Core11MessageItem3TagC1ERK7QPixmapRK7QStringS8_@Base 4:15.12
 _ZN11MessageList4Core11MessageItem3TagC2ERK7QPixmapRK7QStringS8_@Base 4:15.12
 _ZN11MessageList4Core11MessageItem3TagD1Ev@Base 4:15.12
 _ZN11MessageList4Core11MessageItem3TagD2Ev@Base 4:15.12
 _ZN11MessageList4Core11MessageItemC1EPNS0_18MessageItemPrivateE@Base 4:15.12
 _ZN11MessageList4Core11MessageItemC1Ev@Base 4:15.12
 _ZN11MessageList4Core11MessageItemC2EPNS0_18MessageItemPrivateE@Base 4:15.12
 _ZN11MessageList4Core11MessageItemC2Ev@Base 4:15.12
 _ZN11MessageList4Core11MessageItemD0Ev@Base 4:15.12
 _ZN11MessageList4Core11MessageItemD1Ev@Base 4:15.12
 _ZN11MessageList4Core11MessageItemD2Ev@Base 4:15.12
 _ZN11MessageList4Core15QuickSearchLine11eventFilterEP7QObjectP6QEvent@Base 4:15.12
 _ZN11MessageList4Core15QuickSearchLine11qt_metacallEN11QMetaObject4CallEiPPv@Base 4:15.12
 _ZN11MessageList4Core15QuickSearchLine11qt_metacastEPKc@Base 4:15.12
 _ZN11MessageList4Core15QuickSearchLine11resetFilterEv@Base 4:15.12
 _ZN11MessageList4Core15QuickSearchLine16focusQuickSearchERK7QString@Base 4:15.12
 _ZN11MessageList4Core15QuickSearchLine16staticMetaObjectE@Base 4:15.12
 _ZN11MessageList4Core15QuickSearchLine18clearButtonClickedEv@Base 4:15.12
 _ZN11MessageList4Core15QuickSearchLine19searchOptionChangedEv@Base 4:15.12
 _ZN11MessageList4Core15QuickSearchLine20searchEditTextEditedERK7QString@Base 4:15.12
 _ZN11MessageList4Core15QuickSearchLine20statusButtonsClickedEv@Base 4:15.12
 _ZN11MessageList4Core15QuickSearchLine22slotClearButtonClickedEv@Base 4:15.12
 _ZN11MessageList4Core15QuickSearchLine23slotFilterActionChangedERK5QListIN7Akonadi13MessageStatusEE@Base 4:16.04.0
 _ZN11MessageList4Core15QuickSearchLine24slotSearchEditTextEditedERK7QString@Base 4:15.12
 _ZN11MessageList4Core15QuickSearchLine24updateComboboxVisibilityEv@Base 4:15.12
 _ZN11MessageList4Core15QuickSearchLine27changeQuicksearchVisibilityEb@Base 4:15.12
 _ZN11MessageList4Core15QuickSearchLine27setContainsOutboundMessagesEb@Base 4:15.12
 _ZN11MessageList4Core15QuickSearchLineC1EP7QWidget@Base 4:15.12
 _ZN11MessageList4Core15QuickSearchLineC2EP7QWidget@Base 4:15.12
 _ZN11MessageList4Core15QuickSearchLineD0Ev@Base 4:15.12
 _ZN11MessageList4Core15QuickSearchLineD1Ev@Base 4:15.12
 _ZN11MessageList4Core15QuickSearchLineD2Ev@Base 4:15.12
 _ZN11MessageList4Core16SearchLineStatus11qt_metacallEN11QMetaObject4CallEiPPv@Base 4:16.04.0
 _ZN11MessageList4Core16SearchLineStatus11qt_metacastEPKc@Base 4:16.04.0
 _ZN11MessageList4Core16SearchLineStatus13updateFiltersEv@Base 4:16.04.0
 _ZN11MessageList4Core16SearchLineStatus16createMenuSearchEv@Base 4:16.04.0
 _ZN11MessageList4Core16SearchLineStatus16staticMetaObjectE@Base 4:16.04.0
 _ZN11MessageList4Core16SearchLineStatus16updateLockActionEv@Base 4:16.04.0
 _ZN11MessageList4Core16SearchLineStatus17clearFilterActionEv@Base 4:16.04.0
 _ZN11MessageList4Core16SearchLineStatus17initializeActionsEv@Base 4:16.04.0
 _ZN11MessageList4Core16SearchLineStatus18createFilterActionERK5QIconRK7QStringi@Base 4:16.04.0
 _ZN11MessageList4Core16SearchLineStatus19clearFilterByActionEv@Base 4:16.04.0
 _ZN11MessageList4Core16SearchLineStatus19filterActionChangedERK5QListIN7Akonadi13MessageStatusEE@Base 4:16.04.0
 _ZN11MessageList4Core16SearchLineStatus19searchOptionChangedEv@Base 4:16.04.0
 _ZN11MessageList4Core16SearchLineStatus20createFilterByActionEv@Base 4:16.04.0
 _ZN11MessageList4Core16SearchLineStatus21slotToggledLockActionEv@Base 4:16.04.0
 _ZN11MessageList4Core16SearchLineStatus22updateFilterActionIconEv@Base 4:16.04.0
 _ZN11MessageList4Core16SearchLineStatus23slotFilterActionClickedEP7QAction@Base 4:16.04.0
 _ZN11MessageList4Core16SearchLineStatus23slotSearchOptionChangedEv@Base 4:16.04.0
 _ZN11MessageList4Core16SearchLineStatus24clearFilterButtonClickedEv@Base 4:16.04.0
 _ZN11MessageList4Core16SearchLineStatus27setContainsOutboundMessagesEb@Base 4:16.04.0
 _ZN11MessageList4Core16SearchLineStatus31changeSearchAgainstFromOrToTextEv@Base 4:16.04.0
 _ZN11MessageList4Core16SearchLineStatus8showMenuEv@Base 4:16.04.0
 _ZN11MessageList4Core16SearchLineStatus9setLockedEb@Base 4:16.04.0
 _ZN11MessageList4Core16SearchLineStatusC1EP7QWidget@Base 4:16.04.0
 _ZN11MessageList4Core16SearchLineStatusC2EP7QWidget@Base 4:16.04.0
 _ZN11MessageList4Core16SearchLineStatusD0Ev@Base 4:16.04.0
 _ZN11MessageList4Core16SearchLineStatusD1Ev@Base 4:16.04.0
 _ZN11MessageList4Core16SearchLineStatusD2Ev@Base 4:16.04.0
 _ZN11MessageList4Core18QuickSearchWarning11qt_metacallEN11QMetaObject4CallEiPPv@Base 4:15.12
 _ZN11MessageList4Core18QuickSearchWarning11qt_metacastEPKc@Base 4:15.12
 _ZN11MessageList4Core18QuickSearchWarning13setSearchTextERK7QString@Base 4:15.12
 _ZN11MessageList4Core18QuickSearchWarning16staticMetaObjectE@Base 4:15.12
 _ZN11MessageList4Core18QuickSearchWarning19slotDoNotRememberItEv@Base 4:15.12
 _ZN11MessageList4Core18QuickSearchWarningC1EP7QWidget@Base 4:15.12
 _ZN11MessageList4Core18QuickSearchWarningC2EP7QWidget@Base 4:15.12
 _ZN11MessageList4Core18QuickSearchWarningD0Ev@Base 4:15.12
 _ZN11MessageList4Core18QuickSearchWarningD1Ev@Base 4:15.12
 _ZN11MessageList4Core18QuickSearchWarningD2Ev@Base 4:15.12
 _ZN11MessageList4Core4Item10setMaxDateEl@Base 4:15.12
 _ZN11MessageList4Core4Item10setSubjectERK7QString@Base 4:15.12
 _ZN11MessageList4Core4Item11deepestItemEv@Base 4:15.12
 _ZN11MessageList4Core4Item11setReceiverERK7QString@Base 4:15.12
 _ZN11MessageList4Core4Item11setViewableEPNS0_5ModelEb@Base 4:15.12
 (subst)_ZN11MessageList4Core4Item12initialSetupEl{size_t}RK7QStringS4_b@Base 4:15.12
 _ZN11MessageList4Core4Item13setIndexGuessEi@Base 4:15.12
 _ZN11MessageList4Core4Item13takeChildItemEPNS0_5ModelEPS1_@Base 4:15.12
 _ZN11MessageList4Core4Item14itemAboveChildEPS1_@Base 4:15.12
 _ZN11MessageList4Core4Item14itemBelowChildEPS1_@Base 4:15.12
 _ZN11MessageList4Core4Item14topmostNonRootEv@Base 4:15.12
 _ZN11MessageList4Core4Item15appendChildItemEPNS0_5ModelEPS1_@Base 4:15.12
 _ZN11MessageList4Core4Item16recomputeMaxDateEv@Base 4:15.12
 _ZN11MessageList4Core4Item17killAllChildItemsEv@Base 4:15.12
 _ZN11MessageList4Core4Item18rawAppendChildItemEPS1_@Base 4:15.12
 _ZN11MessageList4Core4Item19setSubjectAndStatusERK7QStringN7Akonadi13MessageStatusE@Base 4:15.12
 _ZN11MessageList4Core4Item21setParentCollectionIdEx@Base 4:15.12
 _ZN11MessageList4Core4Item22setInitialExpandStatusENS1_19InitialExpandStatusE@Base 4:15.12
 _ZN11MessageList4Core4Item4dumpERK7QString@Base 4:15.12
 _ZN11MessageList4Core4Item7setDateEl@Base 4:15.12
 (subst)_ZN11MessageList4Core4Item7setSizeE{size_t}@Base 4:15.12
 _ZN11MessageList4Core4Item9itemAboveEv@Base 4:15.12
 _ZN11MessageList4Core4Item9itemBelowEv@Base 4:15.12
 _ZN11MessageList4Core4Item9setItemIdEx@Base 4:15.12
 _ZN11MessageList4Core4Item9setParentEPS1_@Base 4:15.12
 _ZN11MessageList4Core4Item9setSenderERK7QString@Base 4:15.12
 _ZN11MessageList4Core4Item9setStatusEN7Akonadi13MessageStatusE@Base 4:15.12
 _ZN11MessageList4Core4ItemC1ENS1_4TypeE@Base 4:15.12
 _ZN11MessageList4Core4ItemC1ENS1_4TypeEPNS0_11ItemPrivateE@Base 4:15.12
 _ZN11MessageList4Core4ItemC2ENS1_4TypeE@Base 4:15.12
 _ZN11MessageList4Core4ItemC2ENS1_4TypeEPNS0_11ItemPrivateE@Base 4:15.12
 _ZN11MessageList4Core4ItemD0Ev@Base 4:15.12
 _ZN11MessageList4Core4ItemD1Ev@Base 4:15.12
 _ZN11MessageList4Core4ItemD2Ev@Base 4:15.12
 _ZN11MessageList4Pane10readConfigEb@Base 4:15.12
 _ZN11MessageList4Pane11eventFilterEP7QObjectP6QEvent@Base 4:15.12
 _ZN11MessageList4Pane11qt_metacallEN11QMetaObject4CallEiPPv@Base 4:15.12
 _ZN11MessageList4Pane11qt_metacastEPKc@Base 4:15.12
 _ZN11MessageList4Pane11writeConfigEb@Base 4:15.12
 _ZN11MessageList4Pane12createNewTabEv@Base 4:15.12
 _ZN11MessageList4Pane13statusMessageERK7QString@Base 4:15.12
 _ZN11MessageList4Pane15messageSelectedERKN7Akonadi4ItemE@Base 4:15.12
 _ZN11MessageList4Pane15setXmlGuiClientEP13KXMLGUIClient@Base 4:15.12
 _ZN11MessageList4Pane16focusQuickSearchERK7QString@Base 4:15.12
 _ZN11MessageList4Pane16messageActivatedERKN7Akonadi4ItemE@Base 4:15.12
 _ZN11MessageList4Pane16selectionChangedEv@Base 4:15.12
 _ZN11MessageList4Pane16setCurrentFolderERKN7Akonadi10CollectionEbNS_4Core16PreSelectionModeERK7QString@Base 4:15.12
 _ZN11MessageList4Pane16staticMetaObjectE@Base 4:15.12
 _ZN11MessageList4Pane17currentTabChangedEv@Base 4:15.12
 _ZN11MessageList4Pane17resetModelStorageEv@Base 4:15.12
 _ZN11MessageList4Pane17setPreferEmptyTabEb@Base 4:15.12
 _ZN11MessageList4Pane17updateTabIconTextERKN7Akonadi10CollectionERK7QStringRK5QIcon@Base 4:15.12
 _ZN11MessageList4Pane17updateTagComboBoxEv@Base 4:15.12
 _ZN11MessageList4Pane18createStorageModelEP18QAbstractItemModelP19QItemSelectionModelP7QObject@Base 4:15.12
 _ZN11MessageList4Pane19deletePersistentSetEl@Base 4:15.12
 _ZN11MessageList4Pane20focusNextMessageItemENS_4Core17MessageTypeFilterEbb@Base 4:15.12
 _ZN11MessageList4Pane20saveCurrentSelectionEv@Base 4:15.12
 _ZN11MessageList4Pane20setAllGroupsExpandedEb@Base 4:15.12
 _ZN11MessageList4Pane20themeMenuAboutToShowEv@Base 4:15.12
 _ZN11MessageList4Pane21restoreHeaderSettingsEi@Base 4:15.12
 _ZN11MessageList4Pane21selectLastMessageItemENS_4Core17MessageTypeFilterEb@Base 4:15.12
 _ZN11MessageList4Pane21selectNextMessageItemENS_4Core17MessageTypeFilterENS1_26ExistingSelectionBehaviourEbb@Base 4:15.12
 _ZN11MessageList4Pane21setAllThreadsExpandedEb@Base 4:15.12
 _ZN11MessageList4Pane22selectFirstMessageItemENS_4Core17MessageTypeFilterEb@Base 4:15.12
 _ZN11MessageList4Pane24focusPreviousMessageItemENS_4Core17MessageTypeFilterEbb@Base 4:15.12
 _ZN11MessageList4Pane24selectFocusedMessageItemEb@Base 4:15.12
 _ZN11MessageList4Pane24setCurrentThreadExpandedEb@Base 4:15.12
 _ZN11MessageList4Pane24sortOrderMenuAboutToShowEv@Base 4:15.12
 _ZN11MessageList4Pane25currentItemSelectionModelEv@Base 4:15.12
 _ZN11MessageList4Pane25itemListFromPersistentSetEl@Base 4:15.12
 _ZN11MessageList4Pane25populateStatusFilterComboEv@Base 4:15.12
 _ZN11MessageList4Pane25reloadGlobalConfigurationEv@Base 4:15.12
 _ZN11MessageList4Pane25selectPreviousMessageItemENS_4Core17MessageTypeFilterENS1_26ExistingSelectionBehaviourEbb@Base 4:15.12
 _ZN11MessageList4Pane26aggregationMenuAboutToShowEv@Base 4:15.12
 _ZN11MessageList4Pane26messageStatusChangeRequestERKN7Akonadi4ItemERKNS1_13MessageStatusES7_@Base 4:15.12
 _ZN11MessageList4Pane26setQuickSearchClickMessageERK7QString@Base 4:15.12
 _ZN11MessageList4Pane34markMessageItemsAsAboutToBeRemovedElb@Base 4:15.12
 _ZN11MessageList4Pane9focusViewEv@Base 4:15.12
 _ZN11MessageList4Pane9selectAllEv@Base 4:15.12
 _ZN11MessageList4PaneC1EbP18QAbstractItemModelP19QItemSelectionModelP7QWidget@Base 4:15.12
 _ZN11MessageList4PaneC2EbP18QAbstractItemModelP19QItemSelectionModelP7QWidget@Base 4:15.12
 _ZN11MessageList4PaneD0Ev@Base 4:15.12
 _ZN11MessageList4PaneD1Ev@Base 4:15.12
 _ZN11MessageList4PaneD2Ev@Base 4:15.12
 _ZN11MessageList4Util12deleteConfigERK7QString@Base 4:15.12
 _ZN11MessageList4Util14contentSummaryERKN7Akonadi4ItemE@Base 4:15.12
 _ZN11MessageList4Util23todoDefaultMessageColorEv@Base 4:15.12
 _ZN11MessageList4Util25unreadDefaultMessageColorEv@Base 4:15.12
 _ZN11MessageList4Util28importantDefaultMessageColorEv@Base 4:15.12
 _ZN11MessageList5Utils13ThemeComboBox11qt_metacallEN11QMetaObject4CallEiPPv@Base 4:15.12
 _ZN11MessageList5Utils13ThemeComboBox11qt_metacastEPKc@Base 4:15.12
 _ZN11MessageList5Utils13ThemeComboBox13selectDefaultEv@Base 4:15.12
 _ZN11MessageList5Utils13ThemeComboBox16staticMetaObjectE@Base 4:15.12
 _ZN11MessageList5Utils13ThemeComboBox22readStorageModelConfigEPNS_4Core12StorageModelERb@Base 4:15.12
 _ZN11MessageList5Utils13ThemeComboBox22readStorageModelConfigERKN7Akonadi10CollectionERb@Base 4:15.12
 _ZN11MessageList5Utils13ThemeComboBoxC1EP7QWidget@Base 4:15.12
 _ZN11MessageList5Utils13ThemeComboBoxC2EP7QWidget@Base 4:15.12
 _ZN11MessageList5Utils13ThemeComboBoxD0Ev@Base 4:15.12
 _ZN11MessageList5Utils13ThemeComboBoxD1Ev@Base 4:15.12
 _ZN11MessageList5Utils13ThemeComboBoxD2Ev@Base 4:15.12
 _ZN11MessageList5Utils17ThemeConfigButton11qt_metacallEN11QMetaObject4CallEiPPv@Base 4:15.12
 _ZN11MessageList5Utils17ThemeConfigButton11qt_metacastEPKc@Base 4:15.12
 _ZN11MessageList5Utils17ThemeConfigButton16staticMetaObjectE@Base 4:15.12
 _ZN11MessageList5Utils17ThemeConfigButton24configureDialogCompletedEv@Base 4:15.12
 _ZN11MessageList5Utils17ThemeConfigButtonC1EP7QWidgetPKNS0_13ThemeComboBoxE@Base 4:15.12
 _ZN11MessageList5Utils17ThemeConfigButtonC2EP7QWidgetPKNS0_13ThemeComboBoxE@Base 4:15.12
 _ZN11MessageList5Utils17ThemeConfigButtonD0Ev@Base 4:15.12
 _ZN11MessageList5Utils17ThemeConfigButtonD1Ev@Base 4:15.12
 _ZN11MessageList5Utils17ThemeConfigButtonD2Ev@Base 4:15.12
 _ZN11MessageList5Utils19AggregationComboBox11qt_metacallEN11QMetaObject4CallEiPPv@Base 4:15.12
 _ZN11MessageList5Utils19AggregationComboBox11qt_metacastEPKc@Base 4:15.12
 _ZN11MessageList5Utils19AggregationComboBox13selectDefaultEv@Base 4:15.12
 _ZN11MessageList5Utils19AggregationComboBox16staticMetaObjectE@Base 4:15.12
 _ZN11MessageList5Utils19AggregationComboBox22readStorageModelConfigEPNS_4Core12StorageModelERb@Base 4:15.12
 _ZN11MessageList5Utils19AggregationComboBox22readStorageModelConfigERK7QStringRb@Base 4:15.12
 _ZN11MessageList5Utils19AggregationComboBox22readStorageModelConfigERKN7Akonadi10CollectionERb@Base 4:15.12
 _ZN11MessageList5Utils19AggregationComboBoxC1EP7QWidget@Base 4:15.12
 _ZN11MessageList5Utils19AggregationComboBoxC2EP7QWidget@Base 4:15.12
 _ZN11MessageList5Utils19AggregationComboBoxD0Ev@Base 4:15.12
 _ZN11MessageList5Utils19AggregationComboBoxD1Ev@Base 4:15.12
 _ZN11MessageList5Utils19AggregationComboBoxD2Ev@Base 4:15.12
 _ZN11MessageList5Utils23AggregationConfigButton11qt_metacallEN11QMetaObject4CallEiPPv@Base 4:15.12
 _ZN11MessageList5Utils23AggregationConfigButton11qt_metacastEPKc@Base 4:15.12
 _ZN11MessageList5Utils23AggregationConfigButton16staticMetaObjectE@Base 4:15.12
 _ZN11MessageList5Utils23AggregationConfigButton24configureDialogCompletedEv@Base 4:15.12
 _ZN11MessageList5Utils23AggregationConfigButtonC1EP7QWidgetPKNS0_19AggregationComboBoxE@Base 4:15.12
 _ZN11MessageList5Utils23AggregationConfigButtonC2EP7QWidgetPKNS0_19AggregationComboBoxE@Base 4:15.12
 _ZN11MessageList5Utils23AggregationConfigButtonD0Ev@Base 4:15.12
 _ZN11MessageList5Utils23AggregationConfigButtonD1Ev@Base 4:15.12
 _ZN11MessageList5Utils23AggregationConfigButtonD2Ev@Base 4:15.12
 _ZN11MessageList6Widget11qt_metacallEN11QMetaObject4CallEiPPv@Base 4:15.12
 _ZN11MessageList6Widget11qt_metacastEPKc@Base 4:15.12
 _ZN11MessageList6Widget13canAcceptDragEPK10QDropEvent@Base 4:15.12
 _ZN11MessageList6Widget13viewDropEventEP10QDropEvent@Base 4:15.12
 _ZN11MessageList6Widget14slotExpandItemEv@Base 4:15.12
 _ZN11MessageList6Widget15messageSelectedERKN7Akonadi4ItemE@Base 4:15.12
 _ZN11MessageList6Widget15setXmlGuiClientEP13KXMLGUIClient@Base 4:15.12
 _ZN11MessageList6Widget15slotTagsFetchedEP4KJob@Base 4:15.12
 _ZN11MessageList6Widget16focusQuickSearchERK7QString@Base 4:15.12
 _ZN11MessageList6Widget16messageActivatedERKN7Akonadi4ItemE@Base 4:15.12
 _ZN11MessageList6Widget16selectionChangedEv@Base 4:15.12
 _ZN11MessageList6Widget16slotCollapseItemEv@Base 4:15.12
 _ZN11MessageList6Widget16staticMetaObjectE@Base 4:15.12
 _ZN11MessageList6Widget17viewDragMoveEventEP14QDragMoveEvent@Base 4:15.12
 _ZN11MessageList6Widget18viewDragEnterEventEP15QDragEnterEvent@Base 4:15.12
 _ZN11MessageList6Widget19deletePersistentSetEl@Base 4:15.12
 _ZN11MessageList6Widget19fillMessageTagComboEv@Base 4:15.12
 _ZN11MessageList6Widget19viewMessageSelectedEPNS_4Core11MessageItemE@Base 4:15.12
 _ZN11MessageList6Widget20focusNextMessageItemENS_4Core17MessageTypeFilterEbb@Base 4:15.12
 _ZN11MessageList6Widget20setAllGroupsExpandedEb@Base 4:15.12
 _ZN11MessageList6Widget20viewMessageActivatedEPNS_4Core11MessageItemE@Base 4:15.12
 _ZN11MessageList6Widget20viewSelectionChangedEv@Base 4:15.12
 _ZN11MessageList6Widget20viewStartDragRequestEv@Base 4:15.12
 _ZN11MessageList6Widget21selectLastMessageItemENS_4Core17MessageTypeFilterEb@Base 4:15.12
 _ZN11MessageList6Widget21selectNextMessageItemENS_4Core17MessageTypeFilterENS1_26ExistingSelectionBehaviourEbb@Base 4:15.12
 _ZN11MessageList6Widget21setAllThreadsExpandedEb@Base 4:15.12
 _ZN11MessageList6Widget22selectFirstMessageItemENS_4Core17MessageTypeFilterEb@Base 4:15.12
 _ZN11MessageList6Widget24focusPreviousMessageItemENS_4Core17MessageTypeFilterEbb@Base 4:15.12
 _ZN11MessageList6Widget24selectFocusedMessageItemEb@Base 4:15.12
 _ZN11MessageList6Widget24setCurrentThreadExpandedEb@Base 4:15.12
 _ZN11MessageList6Widget25itemListFromPersistentSetEl@Base 4:15.12
 _ZN11MessageList6Widget25selectPreviousMessageItemENS_4Core17MessageTypeFilterENS1_26ExistingSelectionBehaviourEbb@Base 4:15.12
 _ZN11MessageList6Widget26messageStatusChangeRequestERKN7Akonadi4ItemERKNS1_13MessageStatusES7_@Base 4:15.12
 _ZN11MessageList6Widget26setQuickSearchClickMessageERK7QString@Base 4:15.12
 _ZN11MessageList6Widget30viewMessageStatusChangeRequestEPNS_4Core11MessageItemEN7Akonadi13MessageStatusES5_@Base 4:15.12
 _ZN11MessageList6Widget34markMessageItemsAsAboutToBeRemovedElb@Base 4:15.12
 _ZN11MessageList6Widget34viewGroupHeaderContextPopupRequestEPNS_4Core15GroupHeaderItemERK6QPoint@Base 4:15.12
 _ZN11MessageList6Widget34viewMessageListContextPopupRequestERK5QListIPNS_4Core11MessageItemEERK6QPoint@Base 4:15.12
 _ZN11MessageList6Widget9selectAllEv@Base 4:15.12
 _ZN11MessageList6WidgetC1EP7QWidget@Base 4:15.12
 _ZN11MessageList6WidgetC2EP7QWidget@Base 4:15.12
 _ZN11MessageList6WidgetD0Ev@Base 4:15.12
 _ZN11MessageList6WidgetD1Ev@Base 4:15.12
 _ZN11MessageList6WidgetD2Ev@Base 4:15.12
 (optional=templinst)_ZN12KConfigGroup10writeEntryIiEEvPKcRKT_6QFlagsIN11KConfigBase15WriteConfigFlagEE@Base 4:15.12
 _ZNK11MessageList12StorageModel10itemForRowEi@Base 4:15.12
 _ZNK11MessageList12StorageModel10metaObjectEv@Base 4:15.12
 _ZNK11MessageList12StorageModel11columnCountERK11QModelIndex@Base 4:15.12
 _ZNK11MessageList12StorageModel13messageForRowEi@Base 4:15.12
 _ZNK11MessageList12StorageModel16isOutBoundFolderERKN7Akonadi10CollectionE@Base 4:15.12
 _ZNK11MessageList12StorageModel20displayedCollectionsEv@Base 4:15.12
 _ZNK11MessageList12StorageModel21initializeMessageItemEPNS_4Core11MessageItemEib@Base 4:15.12
 _ZNK11MessageList12StorageModel21updateMessageItemDataEPNS_4Core11MessageItemEi@Base 4:15.12
 _ZNK11MessageList12StorageModel22parentCollectionForRowEi@Base 4:15.12
 _ZNK11MessageList12StorageModel24containsOutboundMessagesEv@Base 4:15.12
 _ZNK11MessageList12StorageModel26initialUnreadRowCountGuessEv@Base 4:15.12
 _ZNK11MessageList12StorageModel28fillMessageItemThreadingDataEPNS_4Core11MessageItemEiNS1_12StorageModel19ThreadingDataSubsetE@Base 4:15.12
 _ZNK11MessageList12StorageModel2idEv@Base 4:15.12
 _ZNK11MessageList12StorageModel4dataERK11QModelIndexi@Base 4:15.12
 _ZNK11MessageList12StorageModel5indexEiiRK11QModelIndex@Base 4:15.12
 _ZNK11MessageList12StorageModel6parentERK11QModelIndex@Base 4:15.12
 _ZNK11MessageList12StorageModel8mimeDataERK5QListIPNS_4Core11MessageItemEE@Base 4:15.12
 _ZNK11MessageList12StorageModel8rowCountERK11QModelIndex@Base 4:15.12
 _ZNK11MessageList4Core11MessageItem10annotationEv@Base 4:15.12
 _ZNK11MessageList4Core11MessageItem11akonadiItemEv@Base 4:15.12
 _ZNK11MessageList4Core11MessageItem12messageIdMD5Ev@Base 4:15.12
 _ZNK11MessageList4Core11MessageItem13hasAnnotationEv@Base 4:15.12
 _ZNK11MessageList4Core11MessageItem14inReplyToIdMD5Ev@Base 4:15.12
 _ZNK11MessageList4Core11MessageItem14signatureStateEv@Base 4:15.12
 _ZNK11MessageList4Core11MessageItem15backgroundColorEv@Base 4:15.12
 _ZNK11MessageList4Core11MessageItem15encryptionStateEv@Base 4:15.12
 _ZNK11MessageList4Core11MessageItem15referencesIdMD5Ev@Base 4:15.12
 _ZNK11MessageList4Core11MessageItem15threadingStatusEv@Base 4:15.12
 _ZNK11MessageList4Core11MessageItem16aboutToBeRemovedEv@Base 4:15.12
 _ZNK11MessageList4Core11MessageItem17subjectIsPrefixedEv@Base 4:15.12
 _ZNK11MessageList4Core11MessageItem18strippedSubjectMD5Ev@Base 4:15.12
 _ZNK11MessageList4Core11MessageItem18tagListDescriptionEv@Base 4:15.12
 _ZNK11MessageList4Core11MessageItem3Tag15backgroundColorEv@Base 4:15.12
 _ZNK11MessageList4Core11MessageItem3Tag2idEv@Base 4:15.12
 _ZNK11MessageList4Core11MessageItem3Tag4fontEv@Base 4:15.12
 _ZNK11MessageList4Core11MessageItem3Tag4nameEv@Base 4:15.12
 _ZNK11MessageList4Core11MessageItem3Tag6pixmapEv@Base 4:15.12
 _ZNK11MessageList4Core11MessageItem3Tag8priorityEv@Base 4:15.12
 _ZNK11MessageList4Core11MessageItem3Tag9textColorEv@Base 4:15.12
 _ZNK11MessageList4Core11MessageItem4fontEv@Base 4:15.12
 _ZNK11MessageList4Core11MessageItem7findTagERK7QString@Base 4:15.12
 _ZNK11MessageList4Core11MessageItem7tagListEv@Base 4:15.12
 _ZNK11MessageList4Core11MessageItem8uniqueIdEv@Base 4:15.12
 _ZNK11MessageList4Core11MessageItem9textColorEv@Base 4:15.12
 _ZNK11MessageList4Core15QuickSearchLine10metaObjectEv@Base 4:15.12
 _ZNK11MessageList4Core15QuickSearchLine10searchEditEv@Base 4:15.12
 _ZNK11MessageList4Core15QuickSearchLine13searchOptionsEv@Base 4:15.12
 _ZNK11MessageList4Core15QuickSearchLine17tagFilterComboBoxEv@Base 4:15.12
 _ZNK11MessageList4Core15QuickSearchLine24containsOutboundMessagesEv@Base 4:15.12
 _ZNK11MessageList4Core15QuickSearchLine6statusEv@Base 4:15.12
 _ZNK11MessageList4Core16SearchLineStatus10metaObjectEv@Base 4:16.04.0
 _ZNK11MessageList4Core16SearchLineStatus13searchOptionsEv@Base 4:16.04.0
 _ZNK11MessageList4Core16SearchLineStatus24containsOutboundMessagesEv@Base 4:16.04.0
 _ZNK11MessageList4Core16SearchLineStatus6lockedEv@Base 4:16.04.0
 _ZNK11MessageList4Core18QuickSearchWarning10metaObjectEv@Base 4:15.12
 _ZNK11MessageList4Core4Item10childItemsEv@Base 4:15.12
 _ZNK11MessageList4Core4Item10isViewableEv@Base 4:15.12
 _ZNK11MessageList4Core4Item11hasAncestorEPKS1_@Base 4:15.12
 _ZNK11MessageList4Core4Item11hasChildrenEv@Base 4:15.12
 _ZNK11MessageList4Core4Item11useReceiverEv@Base 4:15.12
 _ZNK11MessageList4Core4Item13formattedDateEv@Base 4:15.12
 _ZNK11MessageList4Core4Item13formattedSizeEv@Base 4:15.12
 _ZNK11MessageList4Core4Item14childItemCountEv@Base 4:15.12
 _ZNK11MessageList4Core4Item14childItemStatsERNS1_14ChildItemStatsE@Base 4:15.12
 _ZNK11MessageList4Core4Item14firstChildItemEv@Base 4:15.12
 _ZNK11MessageList4Core4Item16formattedMaxDateEv@Base 4:15.12
 _ZNK11MessageList4Core4Item16indexOfChildItemEPS1_@Base 4:15.12
 _ZNK11MessageList4Core4Item16senderOrReceiverEv@Base 4:15.12
 _ZNK11MessageList4Core4Item17statusDescriptionEv@Base 4:15.12
 _ZNK11MessageList4Core4Item18parentCollectionIdEv@Base 4:15.12
 _ZNK11MessageList4Core4Item19initialExpandStatusEv@Base 4:15.12
 _ZNK11MessageList4Core4Item4dateEv@Base 4:15.12
 _ZNK11MessageList4Core4Item4sizeEv@Base 4:15.12
 _ZNK11MessageList4Core4Item4typeEv@Base 4:15.12
 _ZNK11MessageList4Core4Item6itemIdEv@Base 4:15.12
 _ZNK11MessageList4Core4Item6parentEv@Base 4:15.12
 _ZNK11MessageList4Core4Item6senderEv@Base 4:15.12
 _ZNK11MessageList4Core4Item6statusEv@Base 4:15.12
 _ZNK11MessageList4Core4Item7maxDateEv@Base 4:15.12
 _ZNK11MessageList4Core4Item7subjectEv@Base 4:15.12
 _ZNK11MessageList4Core4Item8receiverEv@Base 4:15.12
 _ZNK11MessageList4Core4Item9childItemEi@Base 4:15.12
 _ZNK11MessageList4Pane10isThreadedEv@Base 4:15.12
 _ZNK11MessageList4Pane10metaObjectEv@Base 4:15.12
 _ZNK11MessageList4Pane11currentItemEv@Base 4:15.12
 _ZNK11MessageList4Pane14currentMessageEv@Base 4:15.12
 _ZNK11MessageList4Pane14currentOptionsEv@Base 4:15.12
 _ZNK11MessageList4Pane14selectionEmptyEv@Base 4:15.12
 _ZNK11MessageList4Pane17getSelectionStatsER7QVectorIN7Akonadi4ItemEES5_Pbb@Base 4:15.12
 _ZNK11MessageList4Pane18searchEditHasFocusEv@Base 4:15.12
 _ZNK11MessageList4Pane19currentFilterStatusEv@Base 4:15.12
 _ZNK11MessageList4Pane22selectionAsMessageListEb@Base 4:15.12
 _ZNK11MessageList4Pane24selectionAsListMessageIdEb@Base 4:15.12
 _ZNK11MessageList4Pane24selectionAsPersistentSetEb@Base 4:15.12
 _ZNK11MessageList4Pane25currentFilterSearchStringEv@Base 4:15.12
 _ZNK11MessageList4Pane26currentThreadAsMessageListEv@Base 4:15.12
 _ZNK11MessageList4Pane26selectionAsMessageItemListEb@Base 4:15.12
 _ZNK11MessageList4Pane28currentThreadAsPersistentSetEv@Base 4:15.12
 _ZNK11MessageList4Pane28selectionAsMessageItemListIdEb@Base 4:15.12
 _ZNK11MessageList5Utils13ThemeComboBox10metaObjectEv@Base 4:15.12
 _ZNK11MessageList5Utils13ThemeComboBox12currentThemeEv@Base 4:15.12
 _ZNK11MessageList5Utils13ThemeComboBox18writeDefaultConfigEv@Base 4:15.12
 _ZNK11MessageList5Utils13ThemeComboBox23writeStorageModelConfigEPNS_4Core12StorageModelEb@Base 4:15.12
 _ZNK11MessageList5Utils13ThemeComboBox23writeStorageModelConfigERK7QStringb@Base 4:15.12
 _ZNK11MessageList5Utils13ThemeComboBox23writeStorageModelConfigERKN7Akonadi10CollectionEb@Base 4:15.12
 _ZNK11MessageList5Utils17ThemeConfigButton10metaObjectEv@Base 4:15.12
 _ZNK11MessageList5Utils19AggregationComboBox10metaObjectEv@Base 4:15.12
 _ZNK11MessageList5Utils19AggregationComboBox18currentAggregationEv@Base 4:15.12
 _ZNK11MessageList5Utils19AggregationComboBox18writeDefaultConfigEv@Base 4:15.12
 _ZNK11MessageList5Utils19AggregationComboBox23writeStorageModelConfigEPNS_4Core12StorageModelEb@Base 4:15.12
 _ZNK11MessageList5Utils19AggregationComboBox23writeStorageModelConfigERK7QStringb@Base 4:15.12
 _ZNK11MessageList5Utils19AggregationComboBox23writeStorageModelConfigERKN7Akonadi10CollectionEb@Base 4:15.12
 _ZNK11MessageList5Utils23AggregationConfigButton10metaObjectEv@Base 4:15.12
 _ZNK11MessageList6Widget10isThreadedEv@Base 4:15.12
 _ZNK11MessageList6Widget10metaObjectEv@Base 4:15.12
 _ZNK11MessageList6Widget11currentItemEv@Base 4:15.12
 _ZNK11MessageList6Widget14currentMessageEv@Base 4:15.12
 _ZNK11MessageList6Widget14currentOptionsEv@Base 4:15.12
 _ZNK11MessageList6Widget14selectionEmptyEv@Base 4:15.12
 _ZNK11MessageList6Widget17currentCollectionEv@Base 4:15.12
 _ZNK11MessageList6Widget17getSelectionStatsER7QVectorIN7Akonadi4ItemEES5_Pbb@Base 4:15.12
 _ZNK11MessageList6Widget19currentFilterStatusEv@Base 4:15.12
 _ZNK11MessageList6Widget22selectionAsMessageListEb@Base 4:15.12
 _ZNK11MessageList6Widget24selectionAsListMessageIdEb@Base 4:15.12
 _ZNK11MessageList6Widget24selectionAsPersistentSetEb@Base 4:15.12
 _ZNK11MessageList6Widget25currentFilterSearchStringEv@Base 4:15.12
 _ZNK11MessageList6Widget26currentThreadAsMessageListEv@Base 4:15.12
 _ZNK11MessageList6Widget26selectionAsMessageItemListEb@Base 4:15.12
 _ZNK11MessageList6Widget28currentThreadAsPersistentSetEv@Base 4:15.12
 _ZNK11MessageList6Widget28selectionAsMessageItemListIdEb@Base 4:15.12
 (optional=templinst|arch=)_ZNK12KConfigGroup9readEntryI10QByteArrayEET_PKcRKS2_@Base 4:15.12
 (optional=templinst)_ZNK12KConfigGroup9readEntryIiEET_PKcRKS1_@Base 4:15.12
 (optional=templinst|arch=amd64 kfreebsd-amd64 mips64el ppc64 ppc64el s390x sparc64)_ZNK12KConfigGroup9readEntryIyEET_PKcRKS1_@Base 4:15.12
 (optional=templinst)_ZNK7Akonadi4Item11payloadImplI14QSharedPointerIN5KMime7MessageEEEENSt9enable_ifIXntsrNS_8Internal12PayloadTraitIT_EE13isPolymorphicES9_E4typeEv@Base 4:15.12
 (optional=templinst)_ZNK7Akonadi4Item14tryToCloneImplI14QSharedPointerIN5KMime7MessageEESt10shared_ptrIS4_EEENSt9enable_ifIXntsrSt7is_sameIT_T0_E5valueEbE4typeEPSA_PKi@Base 4:15.12
 (arch=!armel !armhf)_ZTI11KIconEngine@Base 4:16.04.0
 _ZTIN11MessageList12StorageModelE@Base 4:15.12
 _ZTIN11MessageList19MessageListSettingsE@Base 4:15.12
 _ZTIN11MessageList4Core11MessageItemE@Base 4:15.12
 _ZTIN11MessageList4Core15QuickSearchLineE@Base 4:15.12
 _ZTIN11MessageList4Core16SearchLineStatusE@Base 4:16.04.0
 _ZTIN11MessageList4Core18QuickSearchWarningE@Base 4:15.12
 _ZTIN11MessageList4Core4ItemE@Base 4:15.12
 _ZTIN11MessageList4PaneE@Base 4:15.12
 _ZTIN11MessageList5Utils13ThemeComboBoxE@Base 4:15.12
 _ZTIN11MessageList5Utils17ThemeConfigButtonE@Base 4:15.12
 _ZTIN11MessageList5Utils19AggregationComboBoxE@Base 4:15.12
 _ZTIN11MessageList5Utils23AggregationConfigButtonE@Base 4:15.12
 _ZTIN11MessageList6WidgetE@Base 4:15.12
 (arch=!armel !armhf)_ZTS11KIconEngine@Base 4:16.04.0
 _ZTSN11MessageList12StorageModelE@Base 4:15.12
 _ZTSN11MessageList19MessageListSettingsE@Base 4:15.12
 _ZTSN11MessageList4Core11MessageItemE@Base 4:15.12
 _ZTSN11MessageList4Core15QuickSearchLineE@Base 4:15.12
 _ZTSN11MessageList4Core16SearchLineStatusE@Base 4:16.04.0
 _ZTSN11MessageList4Core18QuickSearchWarningE@Base 4:15.12
 _ZTSN11MessageList4Core4ItemE@Base 4:15.12
 _ZTSN11MessageList4PaneE@Base 4:15.12
 _ZTSN11MessageList5Utils13ThemeComboBoxE@Base 4:15.12
 _ZTSN11MessageList5Utils17ThemeConfigButtonE@Base 4:15.12
 _ZTSN11MessageList5Utils19AggregationComboBoxE@Base 4:15.12
 _ZTSN11MessageList5Utils23AggregationConfigButtonE@Base 4:15.12
 _ZTSN11MessageList6WidgetE@Base 4:15.12
 (arch=!armel !armhf)_ZTV11KIconEngine@Base 4:16.04.0
 _ZTVN11MessageList12StorageModelE@Base 4:15.12
 _ZTVN11MessageList19MessageListSettingsE@Base 4:15.12
 _ZTVN11MessageList4Core11MessageItemE@Base 4:15.12
 _ZTVN11MessageList4Core15QuickSearchLineE@Base 4:15.12
 _ZTVN11MessageList4Core16SearchLineStatusE@Base 4:16.04.0
 _ZTVN11MessageList4Core18QuickSearchWarningE@Base 4:15.12
 _ZTVN11MessageList4Core4ItemE@Base 4:15.12
 _ZTVN11MessageList4PaneE@Base 4:15.12
 _ZTVN11MessageList5Utils13ThemeComboBoxE@Base 4:15.12
 _ZTVN11MessageList5Utils17ThemeConfigButtonE@Base 4:15.12
 _ZTVN11MessageList5Utils19AggregationComboBoxE@Base 4:15.12
 _ZTVN11MessageList5Utils23AggregationConfigButtonE@Base 4:15.12
 _ZTVN11MessageList6WidgetE@Base 4:15.12
 (c++)"non-virtual thunk to MessageList::Core::MessageItem::~MessageItem()@Base" 4:15.12
 (c++)"non-virtual thunk to MessageList::Core::QuickSearchLine::~QuickSearchLine()@Base" 4:15.12
 (c++)"non-virtual thunk to MessageList::Core::QuickSearchWarning::~QuickSearchWarning()@Base" 4:15.12
 (c++)"non-virtual thunk to MessageList::Core::SearchLineStatus::~SearchLineStatus()@Base" 4:16.04.0
 (c++)"non-virtual thunk to MessageList::Pane::~Pane()@Base" 4:15.12
 (c++)"non-virtual thunk to MessageList::Utils::AggregationComboBox::~AggregationComboBox()@Base" 4:15.12
 (c++)"non-virtual thunk to MessageList::Utils::AggregationConfigButton::~AggregationConfigButton()@Base" 4:15.12
 (c++)"non-virtual thunk to MessageList::Utils::ThemeComboBox::~ThemeComboBox()@Base" 4:15.12
 (c++)"non-virtual thunk to MessageList::Utils::ThemeConfigButton::~ThemeConfigButton()@Base" 4:15.12
 (c++)"non-virtual thunk to MessageList::Widget::~Widget()@Base" 4:15.12
