# SymbolsHelper-Confirmed: 4:16.04.2 amd64 armhf hppa hurd-i386 i386 kfreebsd-amd64 kfreebsd-i386 mips mips64el mipsel powerpc ppc64el s390x
libKF5MessageComposer.so.5 libkf5messagecomposer5 #MINVER#
 _ZN13MessageHelper10initHeaderERK14QSharedPointerIN5KMime7MessageEEPKN19KIdentityManagement15IdentityManagerEj@Base 4:15.12
 _ZN13MessageHelper16extractAddrSpecsERK14QSharedPointerIN5KMime7MessageEERK10QByteArray@Base 4:15.12
 _ZN15MessageComposer10ActionTypeC1EP7QActionNS0_4TypeE@Base 4:16.04.0
 _ZN15MessageComposer10ActionTypeC1Ev@Base 4:16.04.0
 _ZN15MessageComposer10ActionTypeC2EP7QActionNS0_4TypeE@Base 4:16.04.0
 _ZN15MessageComposer10ActionTypeC2Ev@Base 4:16.04.0
 _ZN15MessageComposer10EncryptJob10setContentEPN5KMime7ContentE@Base 4:15.12
 _ZN15MessageComposer10EncryptJob11qt_metacallEN11QMetaObject4CallEiPPv@Base 4:15.12
 _ZN15MessageComposer10EncryptJob11qt_metacastEPKc@Base 4:15.12
 _ZN15MessageComposer10EncryptJob13setRecipientsERK11QStringList@Base 4:15.12
 _ZN15MessageComposer10EncryptJob16staticMetaObjectE@Base 4:15.12
 _ZN15MessageComposer10EncryptJob17setEncryptionKeysERKSt6vectorIN5GpgME3KeyESaIS3_EE@Base 4:15.12
 _ZN15MessageComposer10EncryptJob22setCryptoMessageFormatEN4Kleo19CryptoMessageFormatE@Base 4:15.12
 _ZN15MessageComposer10EncryptJob7processEv@Base 4:15.12
 _ZN15MessageComposer10EncryptJobC1EP7QObject@Base 4:15.12
 _ZN15MessageComposer10EncryptJobC2EP7QObject@Base 4:15.12
 _ZN15MessageComposer10EncryptJobD0Ev@Base 4:15.12
 _ZN15MessageComposer10EncryptJobD1Ev@Base 4:15.12
 _ZN15MessageComposer10EncryptJobD2Ev@Base 4:15.12
 _ZN15MessageComposer10GlobalPart11qt_metacallEN11QMetaObject4CallEiPPv@Base 4:15.12
 _ZN15MessageComposer10GlobalPart11qt_metacastEPKc@Base 4:15.12
 _ZN15MessageComposer10GlobalPart11setCharsetsERK5QListI10QByteArrayE@Base 4:15.12
 _ZN15MessageComposer10GlobalPart13setGuiEnabledEb@Base 4:15.12
 _ZN15MessageComposer10GlobalPart14set8BitAllowedEb@Base 4:15.12
 _ZN15MessageComposer10GlobalPart15setMDNRequestedEb@Base 4:15.12
 _ZN15MessageComposer10GlobalPart16staticMetaObjectE@Base 4:15.12
 _ZN15MessageComposer10GlobalPart21setParentWidgetForGuiEP7QWidget@Base 4:15.12
 _ZN15MessageComposer10GlobalPart25setFallbackCharsetEnabledEb@Base 4:15.12
 _ZN15MessageComposer10GlobalPartC1EP7QObject@Base 4:15.12
 _ZN15MessageComposer10GlobalPartC2EP7QObject@Base 4:15.12
 _ZN15MessageComposer10GlobalPartD0Ev@Base 4:15.12
 _ZN15MessageComposer10GlobalPartD1Ev@Base 4:15.12
 _ZN15MessageComposer10GlobalPartD2Ev@Base 4:15.12
 _ZN15MessageComposer11MainTextJob11qt_metacallEN11QMetaObject4CallEiPPv@Base 4:15.12
 _ZN15MessageComposer11MainTextJob11qt_metacastEPKc@Base 4:15.12
 _ZN15MessageComposer11MainTextJob11setTextPartEPNS_8TextPartE@Base 4:15.12
 _ZN15MessageComposer11MainTextJob16staticMetaObjectE@Base 4:15.12
 _ZN15MessageComposer11MainTextJob7doStartEv@Base 4:15.12
 _ZN15MessageComposer11MainTextJob7processEv@Base 4:15.12
 _ZN15MessageComposer11MainTextJobC1EPNS_8TextPartEP7QObject@Base 4:15.12
 _ZN15MessageComposer11MainTextJobC2EPNS_8TextPartEP7QObject@Base 4:15.12
 _ZN15MessageComposer11MainTextJobD0Ev@Base 4:15.12
 _ZN15MessageComposer11MainTextJobD1Ev@Base 4:15.12
 _ZN15MessageComposer11MainTextJobD2Ev@Base 4:15.12
 _ZN15MessageComposer11MessagePart11qt_metacallEN11QMetaObject4CallEiPPv@Base 4:15.12
 _ZN15MessageComposer11MessagePart11qt_metacastEPKc@Base 4:15.12
 _ZN15MessageComposer11MessagePart16staticMetaObjectE@Base 4:15.12
 _ZN15MessageComposer11MessagePartC1EP7QObject@Base 4:15.12
 _ZN15MessageComposer11MessagePartC2EP7QObject@Base 4:15.12
 _ZN15MessageComposer11MessagePartD0Ev@Base 4:15.12
 _ZN15MessageComposer11MessagePartD1Ev@Base 4:15.12
 _ZN15MessageComposer11MessagePartD2Ev@Base 4:15.12
 _ZN15MessageComposer12ImageScaling11resizeImageEv@Base 4:15.12
 _ZN15MessageComposer12ImageScaling11setMimetypeERK10QByteArray@Base 4:15.12
 _ZN15MessageComposer12ImageScaling15generateNewNameEv@Base 4:15.12
 _ZN15MessageComposer12ImageScaling17loadImageFromDataERK10QByteArray@Base 4:15.12
 _ZN15MessageComposer12ImageScaling7setNameERK7QString@Base 4:15.12
 _ZN15MessageComposer12ImageScalingC1Ev@Base 4:15.12
 _ZN15MessageComposer12ImageScalingC2Ev@Base 4:15.12
 _ZN15MessageComposer12ImageScalingD1Ev@Base 4:15.12
 _ZN15MessageComposer12ImageScalingD2Ev@Base 4:15.12
 _ZN15MessageComposer12MultipartJob11qt_metacallEN11QMetaObject4CallEiPPv@Base 4:15.12
 _ZN15MessageComposer12MultipartJob11qt_metacastEPKc@Base 4:15.12
 _ZN15MessageComposer12MultipartJob16staticMetaObjectE@Base 4:15.12
 _ZN15MessageComposer12MultipartJob19setMultipartSubtypeERK10QByteArray@Base 4:15.12
 _ZN15MessageComposer12MultipartJob7processEv@Base 4:15.12
 _ZN15MessageComposer12MultipartJobC1EP7QObject@Base 4:15.12
 _ZN15MessageComposer12MultipartJobC2EP7QObject@Base 4:15.12
 _ZN15MessageComposer12MultipartJobD0Ev@Base 4:15.12
 _ZN15MessageComposer12MultipartJobD1Ev@Base 4:15.12
 _ZN15MessageComposer12MultipartJobD2Ev@Base 4:15.12
 _ZN15MessageComposer12PluginEditor11qt_metacallEN11QMetaObject4CallEiPPv@Base 4:16.04.0
 _ZN15MessageComposer12PluginEditor11qt_metacastEPKc@Base 4:16.04.0
 _ZN15MessageComposer12PluginEditor16staticMetaObjectE@Base 4:16.04.0
 _ZN15MessageComposer12PluginEditor8setOrderEi@Base 4:16.04.0
 _ZN15MessageComposer12PluginEditorC1EP7QObject@Base 4:16.04.0
 _ZN15MessageComposer12PluginEditorC2EP7QObject@Base 4:16.04.0
 _ZN15MessageComposer12PluginEditorD0Ev@Base 4:16.04.0
 _ZN15MessageComposer12PluginEditorD1Ev@Base 4:16.04.0
 _ZN15MessageComposer12PluginEditorD2Ev@Base 4:16.04.0
 _ZN15MessageComposer13AkonadiSender11qt_metacallEN11QMetaObject4CallEiPPv@Base 4:15.12
 _ZN15MessageComposer13AkonadiSender11qt_metacastEPKc@Base 4:15.12
 _ZN15MessageComposer13AkonadiSender12doSendQueuedEi@Base 4:15.12
 _ZN15MessageComposer13AkonadiSender14queueJobResultEP4KJob@Base 4:15.12
 _ZN15MessageComposer13AkonadiSender16staticMetaObjectE@Base 4:15.12
 _ZN15MessageComposer13AkonadiSender18sendOrQueueMessageERK14QSharedPointerIN5KMime7MessageEENS_13MessageSender10SendMethodE@Base 4:15.12
 _ZN15MessageComposer13AkonadiSender6doSendERK14QSharedPointerIN5KMime7MessageEEs@Base 4:15.12
 _ZN15MessageComposer13AkonadiSenderC1EP7QObject@Base 4:15.12
 _ZN15MessageComposer13AkonadiSenderC2EP7QObject@Base 4:15.12
 _ZN15MessageComposer13AkonadiSenderD0Ev@Base 4:15.12
 _ZN15MessageComposer13AkonadiSenderD1Ev@Base 4:15.12
 _ZN15MessageComposer13AkonadiSenderD2Ev@Base 4:15.12
 _ZN15MessageComposer13AttachmentJob11qt_metacallEN11QMetaObject4CallEiPPv@Base 4:15.12
 _ZN15MessageComposer13AttachmentJob11qt_metacastEPKc@Base 4:15.12
 _ZN15MessageComposer13AttachmentJob16staticMetaObjectE@Base 4:15.12
 _ZN15MessageComposer13AttachmentJob17setAttachmentPartE14QSharedPointerIN11MessageCore14AttachmentPartEE@Base 4:15.12
 _ZN15MessageComposer13AttachmentJob7doStartEv@Base 4:15.12
 _ZN15MessageComposer13AttachmentJob7processEv@Base 4:15.12
 _ZN15MessageComposer13AttachmentJobC1E14QSharedPointerIN11MessageCore14AttachmentPartEEP7QObject@Base 4:15.12
 _ZN15MessageComposer13AttachmentJobC2E14QSharedPointerIN11MessageCore14AttachmentPartEEP7QObject@Base 4:15.12
 _ZN15MessageComposer13AttachmentJobD0Ev@Base 4:15.12
 _ZN15MessageComposer13AttachmentJobD1Ev@Base 4:15.12
 _ZN15MessageComposer13AttachmentJobD2Ev@Base 4:15.12
 _ZN15MessageComposer13SinglepartJob11contentTypeEv@Base 4:15.12
 _ZN15MessageComposer13SinglepartJob11qt_metacallEN11QMetaObject4CallEiPPv@Base 4:15.12
 _ZN15MessageComposer13SinglepartJob11qt_metacastEPKc@Base 4:15.12
 _ZN15MessageComposer13SinglepartJob16staticMetaObjectE@Base 4:15.12
 _ZN15MessageComposer13SinglepartJob18contentDescriptionEv@Base 4:15.12
 _ZN15MessageComposer13SinglepartJob18contentDispositionEv@Base 4:15.12
 _ZN15MessageComposer13SinglepartJob23contentTransferEncodingEv@Base 4:15.12
 _ZN15MessageComposer13SinglepartJob7processEv@Base 4:15.12
 _ZN15MessageComposer13SinglepartJob7setDataERK10QByteArray@Base 4:15.12
 _ZN15MessageComposer13SinglepartJob9contentIDEv@Base 4:15.12
 _ZN15MessageComposer13SinglepartJobC1EP7QObject@Base 4:15.12
 _ZN15MessageComposer13SinglepartJobC2EP7QObject@Base 4:15.12
 _ZN15MessageComposer13SinglepartJobD0Ev@Base 4:15.12
 _ZN15MessageComposer13SinglepartJobD1Ev@Base 4:15.12
 _ZN15MessageComposer13SinglepartJobD2Ev@Base 4:15.12
 _ZN15MessageComposer14ContentJobBase10slotResultEP4KJob@Base 4:15.12
 _ZN15MessageComposer14ContentJobBase11qt_metacallEN11QMetaObject4CallEiPPv@Base 4:15.12
 _ZN15MessageComposer14ContentJobBase11qt_metacastEPKc@Base 4:15.12
 _ZN15MessageComposer14ContentJobBase12appendSubjobEPS0_@Base 4:15.12
 _ZN15MessageComposer14ContentJobBase15setExtraContentEPN5KMime7ContentE@Base 4:15.12
 _ZN15MessageComposer14ContentJobBase16staticMetaObjectE@Base 4:15.12
 _ZN15MessageComposer14ContentJobBase5startEv@Base 4:15.12
 _ZN15MessageComposer14ContentJobBase7doStartEv@Base 4:15.12
 _ZN15MessageComposer14ContentJobBase9addSubjobEP4KJob@Base 4:15.12
 _ZN15MessageComposer14ContentJobBaseC1EP7QObject@Base 4:15.12
 _ZN15MessageComposer14ContentJobBaseC1ERNS_21ContentJobBasePrivateEP7QObject@Base 4:15.12
 _ZN15MessageComposer14ContentJobBaseC2EP7QObject@Base 4:15.12
 _ZN15MessageComposer14ContentJobBaseC2ERNS_21ContentJobBasePrivateEP7QObject@Base 4:15.12
 _ZN15MessageComposer14ContentJobBaseD0Ev@Base 4:15.12
 _ZN15MessageComposer14ContentJobBaseD1Ev@Base 4:15.12
 _ZN15MessageComposer14ContentJobBaseD2Ev@Base 4:15.12
 _ZN15MessageComposer14MessageFactory11createReplyEv@Base 4:15.12
 _ZN15MessageComposer14MessageFactory11setTemplateERK7QString@Base 4:15.12
 _ZN15MessageComposer14MessageFactory12MDNRequestedERK14QSharedPointerIN5KMime7MessageEE@Base 4:15.12
 _ZN15MessageComposer14MessageFactory12applyCharsetE14QSharedPointerIN5KMime7MessageEE@Base 4:15.12
 _ZN15MessageComposer14MessageFactory12createResendEv@Base 4:15.12
 _ZN15MessageComposer14MessageFactory12identityUoidERK14QSharedPointerIN5KMime7MessageEE@Base 4:15.12
 _ZN15MessageComposer14MessageFactory12setSelectionERK7QString@Base 4:15.12
 _ZN15MessageComposer14MessageFactory13createForwardEv@Base 4:15.12
 _ZN15MessageComposer14MessageFactory14createRedirectERK7QStringS3_S3_iS3_i@Base 4:15.12
 _ZN15MessageComposer14MessageFactory16setReplyStrategyENS_13ReplyStrategyE@Base 4:15.12
 _ZN15MessageComposer14MessageFactory17setFolderIdentityEx@Base 4:15.12
 _ZN15MessageComposer14MessageFactory18MDNReturnPathEmptyERK14QSharedPointerIN5KMime7MessageEE@Base 4:15.12
 _ZN15MessageComposer14MessageFactory18setIdentityManagerEPN19KIdentityManagement15IdentityManagerE@Base 4:15.12
 _ZN15MessageComposer14MessageFactory19MDNMDNUnknownOptionERK14QSharedPointerIN5KMime7MessageEE@Base 4:15.12
 _ZN15MessageComposer14MessageFactory21createAttachedForwardERK7QVectorIN7Akonadi4ItemEE@Base 4:15.12
 _ZN15MessageComposer14MessageFactory21createDeliveryReceiptEv@Base 4:15.12
 _ZN15MessageComposer14MessageFactory22putRepliesInSameFolderEx@Base 4:15.12
 _ZN15MessageComposer14MessageFactory22replaceHeadersInStringERK14QSharedPointerIN5KMime7MessageEERK7QString@Base 4:15.12
 _ZN15MessageComposer14MessageFactory23createForwardDigestMIMEERK7QVectorIN7Akonadi4ItemEE@Base 4:15.12
 _ZN15MessageComposer14MessageFactory23setMailingListAddressesERK7QVectorIN5KMime5Types7MailboxEE@Base 4:15.12
 _ZN15MessageComposer14MessageFactory27MDNReturnPathNotInRecieptToERK14QSharedPointerIN5KMime7MessageEE@Base 4:15.12
 _ZN15MessageComposer14MessageFactory28MDNConfirmMultipleRecipientsERK14QSharedPointerIN5KMime7MessageEE@Base 4:15.12
 _ZN15MessageComposer14MessageFactory30createForwardAttachmentMessageERK14QSharedPointerIN5KMime7MessageEE@Base 4:15.12
 _ZN15MessageComposer14MessageFactory8setQuoteEb@Base 4:15.12
 _ZN15MessageComposer14MessageFactory9createMDNEN5KMime3MDN10ActionModeENS2_15DispositionTypeENS2_11SendingModeEiRK7QVectorINS2_19DispositionModifierEE@Base 4:15.12
 _ZN15MessageComposer14MessageFactory9getRefStrERK14QSharedPointerIN5KMime7MessageEE@Base 4:15.12
 _ZN15MessageComposer14MessageFactoryC1ERK14QSharedPointerIN5KMime7MessageEExRKN7Akonadi10CollectionE@Base 4:15.12
 _ZN15MessageComposer14MessageFactoryC2ERK14QSharedPointerIN5KMime7MessageEExRKN7Akonadi10CollectionE@Base 4:15.12
 _ZN15MessageComposer14MessageFactoryD0Ev@Base 4:15.12
 _ZN15MessageComposer14MessageFactoryD1Ev@Base 4:15.12
 _ZN15MessageComposer14MessageFactoryD2Ev@Base 4:15.12
 _ZN15MessageComposer14SignEncryptJob10setContentEPN5KMime7ContentE@Base 4:15.12
 _ZN15MessageComposer14SignEncryptJob11origContentEv@Base 4:15.12
 _ZN15MessageComposer14SignEncryptJob11qt_metacallEN11QMetaObject4CallEiPPv@Base 4:15.12
 _ZN15MessageComposer14SignEncryptJob11qt_metacastEPKc@Base 4:15.12
 _ZN15MessageComposer14SignEncryptJob13setRecipientsERK11QStringList@Base 4:15.12
 _ZN15MessageComposer14SignEncryptJob14setSigningKeysERSt6vectorIN5GpgME3KeyESaIS3_EE@Base 4:15.12
 _ZN15MessageComposer14SignEncryptJob16staticMetaObjectE@Base 4:15.12
 _ZN15MessageComposer14SignEncryptJob17setEncryptionKeysERKSt6vectorIN5GpgME3KeyESaIS3_EE@Base 4:15.12
 _ZN15MessageComposer14SignEncryptJob22setCryptoMessageFormatEN4Kleo19CryptoMessageFormatE@Base 4:15.12
 _ZN15MessageComposer14SignEncryptJob7processEv@Base 4:15.12
 _ZN15MessageComposer14SignEncryptJobC1EP7QObject@Base 4:15.12
 _ZN15MessageComposer14SignEncryptJobC2EP7QObject@Base 4:15.12
 _ZN15MessageComposer14SignEncryptJobD0Ev@Base 4:15.12
 _ZN15MessageComposer14SignEncryptJobD1Ev@Base 4:15.12
 _ZN15MessageComposer14SignEncryptJobD2Ev@Base 4:15.12
 _ZN15MessageComposer14TransparentJob10setContentEPN5KMime7ContentE@Base 4:15.12
 _ZN15MessageComposer14TransparentJob11qt_metacallEN11QMetaObject4CallEiPPv@Base 4:15.12
 _ZN15MessageComposer14TransparentJob11qt_metacastEPKc@Base 4:15.12
 _ZN15MessageComposer14TransparentJob16staticMetaObjectE@Base 4:15.12
 _ZN15MessageComposer14TransparentJob7processEv@Base 4:15.12
 _ZN15MessageComposer14TransparentJobC1EP7QObject@Base 4:15.12
 _ZN15MessageComposer14TransparentJobC2EP7QObject@Base 4:15.12
 _ZN15MessageComposer14TransparentJobD0Ev@Base 4:15.12
 _ZN15MessageComposer14TransparentJobD1Ev@Base 4:15.12
 _ZN15MessageComposer14TransparentJobD2Ev@Base 4:15.12
 _ZN15MessageComposer15AttachmentModel11qt_metacallEN11QMetaObject4CallEiPPv@Base 4:15.12
 _ZN15MessageComposer15AttachmentModel11qt_metacastEPKc@Base 4:15.12
 _ZN15MessageComposer15AttachmentModel11setModifiedEb@Base 4:15.12
 _ZN15MessageComposer15AttachmentModel11signEnabledEb@Base 4:15.12
 _ZN15MessageComposer15AttachmentModel12dropMimeDataEPK9QMimeDataN2Qt10DropActionEiiRK11QModelIndex@Base 4:15.12
 _ZN15MessageComposer15AttachmentModel13addAttachmentE14QSharedPointerIN11MessageCore14AttachmentPartEE@Base 4:15.12
 _ZN15MessageComposer15AttachmentModel14encryptEnabledEb@Base 4:15.12
 _ZN15MessageComposer15AttachmentModel14setSignEnabledEb@Base 4:15.12
 _ZN15MessageComposer15AttachmentModel15setSignSelectedEb@Base 4:15.12
 _ZN15MessageComposer15AttachmentModel16removeAttachmentE14QSharedPointerIN11MessageCore14AttachmentPartEE@Base 4:15.12
 _ZN15MessageComposer15AttachmentModel16staticMetaObjectE@Base 4:15.12
 _ZN15MessageComposer15AttachmentModel16updateAttachmentE14QSharedPointerIN11MessageCore14AttachmentPartEE@Base 4:15.12
 _ZN15MessageComposer15AttachmentModel17attachmentRemovedE14QSharedPointerIN11MessageCore14AttachmentPartEE@Base 4:15.12
 _ZN15MessageComposer15AttachmentModel17replaceAttachmentE14QSharedPointerIN11MessageCore14AttachmentPartEES4_@Base 4:15.12
 _ZN15MessageComposer15AttachmentModel17setEncryptEnabledEb@Base 4:15.12
 _ZN15MessageComposer15AttachmentModel18autoDisplayEnabledEb@Base 4:15.12
 _ZN15MessageComposer15AttachmentModel18setEncryptSelectedEb@Base 4:15.12
 _ZN15MessageComposer15AttachmentModel19attachUrlsRequestedERK5QListI4QUrlE@Base 4:15.12
 _ZN15MessageComposer15AttachmentModel20attachItemsRequesterERK7QVectorIN7Akonadi4ItemEE@Base 4:15.12
 _ZN15MessageComposer15AttachmentModel21setAutoDisplayEnabledEb@Base 4:15.12
 _ZN15MessageComposer15AttachmentModel27attachmentCompressRequestedE14QSharedPointerIN11MessageCore14AttachmentPartEEb@Base 4:15.12
 _ZN15MessageComposer15AttachmentModel7setDataERK11QModelIndexRK8QVarianti@Base 4:15.12
 _ZN15MessageComposer15AttachmentModelC1EP7QObject@Base 4:15.12
 _ZN15MessageComposer15AttachmentModelC2EP7QObject@Base 4:15.12
 _ZN15MessageComposer15AttachmentModelD0Ev@Base 4:15.12
 _ZN15MessageComposer15AttachmentModelD1Ev@Base 4:15.12
 _ZN15MessageComposer15AttachmentModelD2Ev@Base 4:15.12
 _ZN15MessageComposer16AliasesExpandJob11qt_metacallEN11QMetaObject4CallEiPPv@Base 4:15.12
 _ZN15MessageComposer16AliasesExpandJob11qt_metacastEPKc@Base 4:15.12
 _ZN15MessageComposer16AliasesExpandJob15finishExpansionEv@Base 4:15.12
 _ZN15MessageComposer16AliasesExpandJob16staticMetaObjectE@Base 4:15.12
 _ZN15MessageComposer16AliasesExpandJob25slotNicknameExpansionDoneEP4KJob@Base 4:15.12
 _ZN15MessageComposer16AliasesExpandJob33slotDistributionListExpansionDoneEP4KJob@Base 4:15.12
 _ZN15MessageComposer16AliasesExpandJob5startEv@Base 4:15.12
 _ZN15MessageComposer16AliasesExpandJobC1ERK7QStringS3_P7QObject@Base 4:15.12
 _ZN15MessageComposer16AliasesExpandJobC2ERK7QStringS3_P7QObject@Base 4:15.12
 _ZN15MessageComposer16AliasesExpandJobD0Ev@Base 4:15.12
 _ZN15MessageComposer16AliasesExpandJobD1Ev@Base 4:15.12
 _ZN15MessageComposer16AliasesExpandJobD2Ev@Base 4:15.12
 _ZN15MessageComposer16ComposerLineEdit11qt_metacallEN11QMetaObject4CallEiPPv@Base 4:15.12
 _ZN15MessageComposer16ComposerLineEdit11qt_metacastEPKc@Base 4:15.12
 _ZN15MessageComposer16ComposerLineEdit13keyPressEventEP9QKeyEvent@Base 4:15.12
 _ZN15MessageComposer16ComposerLineEdit16staticMetaObjectE@Base 4:15.12
 _ZN15MessageComposer16ComposerLineEdit7focusUpEv@Base 4:15.12
 _ZN15MessageComposer16ComposerLineEdit9focusDownEv@Base 4:15.12
 _ZN15MessageComposer16ComposerLineEditC1EbP7QWidget@Base 4:15.12
 _ZN15MessageComposer16ComposerLineEditC2EbP7QWidget@Base 4:15.12
 _ZN15MessageComposer16ComposerLineEditD0Ev@Base 4:15.12
 _ZN15MessageComposer16ComposerLineEditD1Ev@Base 4:15.12
 _ZN15MessageComposer16ComposerLineEditD2Ev@Base 4:15.12
 _ZN15MessageComposer16ComposerViewBase10enableHtmlEv@Base 4:15.12
 _ZN15MessageComposer16ComposerViewBase10setMessageERK14QSharedPointerIN5KMime7MessageEEb@Base 4:15.12
 _ZN15MessageComposer16ComposerViewBase10setReplyToERK7QString@Base 4:15.12
 _ZN15MessageComposer16ComposerViewBase10setSubjectERK7QString@Base 4:15.12
 _ZN15MessageComposer16ComposerViewBase11disableHtmlENS0_12ConfirmationE@Base 4:15.12
 _ZN15MessageComposer16ComposerViewBase11qt_metacallEN11QMetaObject4CallEiPPv@Base 4:15.12
 _ZN15MessageComposer16ComposerViewBase11qt_metacastEPKc@Base 4:15.12
 _ZN15MessageComposer16ComposerViewBase11saveMessageERK14QSharedPointerIN5KMime7MessageEENS_13MessageSender6SaveInE@Base 4:15.12
 _ZN15MessageComposer16ComposerViewBase11setCharsetsERK5QListI10QByteArrayE@Base 4:15.12
 _ZN15MessageComposer16ComposerViewBase11setFccComboEPN7Akonadi18CollectionComboBoxE@Base 4:15.12
 _ZN15MessageComposer16ComposerViewBase12fillInfoPartEPNS_8InfoPartENS0_18RecipientExpansionE@Base 4:15.12
 _ZN15MessageComposer16ComposerViewBase12initAutoSaveEv@Base 4:15.12
 _ZN15MessageComposer16ComposerViewBase12queueMessageERK14QSharedPointerIN5KMime7MessageEEPNS_8ComposerE@Base 4:15.12
 _ZN15MessageComposer16ComposerViewBase13addAttachmentERK4QUrlRK7QStringb@Base 4:15.12
 _ZN15MessageComposer16ComposerViewBase13addAttachmentERK7QStringS3_S3_RK10QByteArrayS6_@Base 4:15.12
 _ZN15MessageComposer16ComposerViewBase13clearFollowUpEv@Base 4:15.12
 _ZN15MessageComposer16ComposerViewBase13collectImagesEPN5KMime7ContentE@Base 4:15.12
 _ZN15MessageComposer16ComposerViewBase13identityComboEv@Base 4:15.12
 _ZN15MessageComposer16ComposerViewBase13setDictionaryEPN6Sonnet18DictionaryComboBoxE@Base 4:15.12
 _ZN15MessageComposer16ComposerViewBase14cleanEmailListERK11QStringList@Base 4:15.12
 _ZN15MessageComposer16ComposerViewBase14fillGlobalPartEPNS_10GlobalPartE@Base 4:15.12
 _ZN15MessageComposer16ComposerViewBase14updateAutoSaveEv@Base 4:15.12
 _ZN15MessageComposer16ComposerViewBase14updateTemplateERK14QSharedPointerIN5KMime7MessageEE@Base 4:15.12
 _ZN15MessageComposer16ComposerViewBase15attachmentModelEv@Base 4:15.12
 _ZN15MessageComposer16ComposerViewBase15autoSaveMessageEv@Base 4:15.12
 _ZN15MessageComposer16ComposerViewBase15cleanupAutoSaveEv@Base 4:15.12
 _ZN15MessageComposer16ComposerViewBase15identityChangedERKN19KIdentityManagement8IdentityES4_b@Base 4:15.12
 _ZN15MessageComposer16ComposerViewBase15identityManagerEv@Base 4:15.12
 _ZN15MessageComposer16ComposerViewBase15readyForSendingEv@Base 4:15.12
 _ZN15MessageComposer16ComposerViewBase15setCustomHeaderERK4QMapI10QByteArray7QStringE@Base 4:15.12
 _ZN15MessageComposer16ComposerViewBase15setFollowUpDateERK5QDate@Base 4:15.12
 _ZN15MessageComposer16ComposerViewBase15setMDNRequestedEb@Base 4:15.12
 _ZN15MessageComposer16ComposerViewBase15slotQueueResultEP4KJob@Base 4:15.12
 _ZN15MessageComposer16ComposerViewBase15slotSaveMessageEP4KJob@Base 4:15.12
 _ZN15MessageComposer16ComposerViewBase16recipientsEditorEv@Base 4:15.12
 _ZN15MessageComposer16ComposerViewBase16saveMailSettingsEv@Base 4:15.12
 _ZN15MessageComposer16ComposerViewBase16sentSuccessfullyEv@Base 4:15.12
 _ZN15MessageComposer16ComposerViewBase16setCryptoOptionsEbbN4Kleo19CryptoMessageFormatEb@Base 4:15.12
 _ZN15MessageComposer16ComposerViewBase16setIdentityComboEPN19KIdentityManagement13IdentityComboE@Base 4:15.12
 _ZN15MessageComposer16ComposerViewBase16setSendLaterInfoEPN9SendLater13SendLaterInfoE@Base 4:15.12
 _ZN15MessageComposer16ComposerViewBase16staticMetaObjectE@Base 4:15.12
 _ZN15MessageComposer16ComposerViewBase16updateRecipientsERKN19KIdentityManagement8IdentityES4_NS_9Recipient4TypeE@Base 4:15.12
 _ZN15MessageComposer16ComposerViewBase17addAttachmentPartEPN5KMime7ContentE@Base 4:15.12
 _ZN15MessageComposer16ComposerViewBase17setTransportComboEPN13MailTransport17TransportComboBoxE@Base 4:15.12
 _ZN15MessageComposer16ComposerViewBase18setAttachmentModelEPNS_15AttachmentModelE@Base 4:15.12
 _ZN15MessageComposer16ComposerViewBase18setIdentityManagerEPN19KIdentityManagement15IdentityManagerE@Base 4:15.12
 _ZN15MessageComposer16ComposerViewBase19addFollowupReminderERK7QString@Base 4:15.12
 _ZN15MessageComposer16ComposerViewBase19fillQueueJobHeadersEPN13MailTransport15MessageQueueJobE14QSharedPointerIN5KMime7MessageEEPKNS_8InfoPartE@Base 4:15.12
 _ZN15MessageComposer16ComposerViewBase19saveRecentAddressesERK14QSharedPointerIN5KMime7MessageEE@Base 4:15.12
 _ZN15MessageComposer16ComposerViewBase19setAutoSaveFileNameERK7QString@Base 4:15.12
 _ZN15MessageComposer16ComposerViewBase19setAutoSaveIntervalEi@Base 4:15.12
 _ZN15MessageComposer16ComposerViewBase19setRecipientsEditorEPNS_16RecipientsEditorE@Base 4:15.12
 _ZN15MessageComposer16ComposerViewBase19signatureControllerEv@Base 4:15.12
 _ZN15MessageComposer16ComposerViewBase19writeAutoSaveToDiskERK14QSharedPointerIN5KMime7MessageEE@Base 4:15.12
 _ZN15MessageComposer16ComposerViewBase20attachmentControllerEv@Base 4:15.12
 _ZN15MessageComposer16ComposerViewBase20createSimpleComposerEv@Base 4:15.12
 _ZN15MessageComposer16ComposerViewBase20slotCreateItemResultEP4KJob@Base 4:15.12
 _ZN15MessageComposer16ComposerViewBase21hasMissingAttachmentsERK11QStringList@Base 4:15.12
 _ZN15MessageComposer16ComposerViewBase21setFollowUpCollectionERKN7Akonadi10CollectionE@Base 4:15.12
 _ZN15MessageComposer16ComposerViewBase21setParentWidgetForGuiEP7QWidget@Base 4:15.12
 _ZN15MessageComposer16ComposerViewBase21slotSendComposeResultEP4KJob@Base 4:15.12
 _ZN15MessageComposer16ComposerViewBase22determineWhetherToSignEbPN4Kleo11KeyResolverEbRbS4_@Base 4:15.12
 _ZN15MessageComposer16ComposerViewBase22generateCryptoMessagesERb@Base 4:15.12
 _ZN15MessageComposer16ComposerViewBase22setSignatureControllerEPNS_19SignatureControllerE@Base 4:15.12
 _ZN15MessageComposer16ComposerViewBase23setAttachmentControllerEPNS_24AttachmentControllerBaseE@Base 4:15.12
 _ZN15MessageComposer16ComposerViewBase24slotEmailAddressResolvedEP4KJob@Base 4:15.12
 _ZN15MessageComposer16ComposerViewBase25determineWhetherToEncryptEbPN4Kleo11KeyResolverEbbRbS4_@Base 4:15.12
 _ZN15MessageComposer16ComposerViewBase25slotAutoSaveComposeResultEP4KJob@Base 4:15.12
 _ZN15MessageComposer16ComposerViewBase26checkForMissingAttachmentsERK11QStringList@Base 4:15.12
 _ZN15MessageComposer16ComposerViewBase28markAllAttachmentsForSigningEb@Base 4:15.12
 _ZN15MessageComposer16ComposerViewBase28slotFccCollectionCheckResultEP4KJob@Base 4:15.12
 _ZN15MessageComposer16ComposerViewBase31inlineSigningEncryptionSelectedEv@Base 4:15.12
 _ZN15MessageComposer16ComposerViewBase31markAllAttachmentsForEncryptionEb@Base 4:15.12
 _ZN15MessageComposer16ComposerViewBase4sendENS_13MessageSender10SendMethodENS1_6SaveInEb@Base 4:15.12
 _ZN15MessageComposer16ComposerViewBase6failedERK7QStringNS0_10FailedTypeE@Base 4:15.12
 _ZN15MessageComposer16ComposerViewBase6setFccERKN7Akonadi10CollectionE@Base 4:15.12
 _ZN15MessageComposer16ComposerViewBase7setFromERK7QString@Base 4:15.12
 _ZN15MessageComposer16ComposerViewBase8modifiedEb@Base 4:15.12
 _ZN15MessageComposer16ComposerViewBase9setEditorEPNS_18RichTextComposerNgE@Base 4:15.12
 _ZN15MessageComposer16ComposerViewBase9setUrgentEb@Base 4:15.12
 _ZN15MessageComposer16ComposerViewBaseC1EP7QObjectP7QWidget@Base 4:15.12
 _ZN15MessageComposer16ComposerViewBaseC2EP7QObjectP7QWidget@Base 4:15.12
 _ZN15MessageComposer16ComposerViewBaseD0Ev@Base 4:15.12
 _ZN15MessageComposer16ComposerViewBaseD1Ev@Base 4:15.12
 _ZN15MessageComposer16ComposerViewBaseD2Ev@Base 4:15.12
 _ZN15MessageComposer16RecipientsEditor11qt_metacallEN11QMetaObject4CallEiPPv@Base 4:15.12
 _ZN15MessageComposer16RecipientsEditor11qt_metacastEPKc@Base 4:15.12
 _ZN15MessageComposer16RecipientsEditor12addRecipientEPNS_15RecipientLineNGERK7QString@Base 4:15.12
 _ZN15MessageComposer16RecipientsEditor12addRecipientERK7QStringNS_9Recipient4TypeE@Base 4:15.12
 _ZN15MessageComposer16RecipientsEditor13slotLineAddedEPN4KPIM15MultiplyingLineE@Base 4:15.12
 _ZN15MessageComposer16RecipientsEditor15removeRecipientERK7QStringNS_9Recipient4TypeE@Base 4:15.12
 _ZN15MessageComposer16RecipientsEditor15slotLineDeletedEi@Base 4:15.12
 _ZN15MessageComposer16RecipientsEditor16selectRecipientsEv@Base 4:15.12
 _ZN15MessageComposer16RecipientsEditor16staticMetaObjectE@Base 4:15.12
 _ZN15MessageComposer16RecipientsEditor18setRecipientStringERK7QVectorIN5KMime5Types7MailboxEENS_9Recipient4TypeE@Base 4:15.12
 _ZN15MessageComposer16RecipientsEditor18slotCalculateTotalEv@Base 4:15.12
 _ZN15MessageComposer16RecipientsEditor19slotPickedRecipientERKNS_9RecipientERb@Base 4:15.12
 _ZN15MessageComposer16RecipientsEditor20saveDistributionListEv@Base 4:15.12
 _ZN15MessageComposer16RecipientsEditor22setRecentAddressConfigEP7KConfig@Base 4:15.12
 _ZN15MessageComposer16RecipientsEditorC1EP7QWidget@Base 4:15.12
 _ZN15MessageComposer16RecipientsEditorC2EP7QWidget@Base 4:15.12
 _ZN15MessageComposer16RecipientsEditorD0Ev@Base 4:15.12
 _ZN15MessageComposer16RecipientsEditorD1Ev@Base 4:15.12
 _ZN15MessageComposer16RecipientsEditorD2Ev@Base 4:15.12
 _ZN15MessageComposer17InsertTextFileJob11qt_metacallEN11QMetaObject4CallEiPPv@Base 4:15.12
 _ZN15MessageComposer17InsertTextFileJob11qt_metacastEPKc@Base 4:15.12
 _ZN15MessageComposer17InsertTextFileJob11setEncodingERK7QString@Base 4:15.12
 _ZN15MessageComposer17InsertTextFileJob12slotFileDataEPN3KIO3JobERK10QByteArray@Base 4:15.12
 _ZN15MessageComposer17InsertTextFileJob16staticMetaObjectE@Base 4:15.12
 _ZN15MessageComposer17InsertTextFileJob18slotGetJobFinishedEP4KJob@Base 4:15.12
 _ZN15MessageComposer17InsertTextFileJob5startEv@Base 4:15.12
 _ZN15MessageComposer17InsertTextFileJobC1EP9QTextEditRK4QUrl@Base 4:15.12
 _ZN15MessageComposer17InsertTextFileJobC2EP9QTextEditRK4QUrl@Base 4:15.12
 _ZN15MessageComposer17InsertTextFileJobD0Ev@Base 4:15.12
 _ZN15MessageComposer17InsertTextFileJobD1Ev@Base 4:15.12
 _ZN15MessageComposer17InsertTextFileJobD2Ev@Base 4:15.12
 _ZN15MessageComposer18ImageScalingWidget10loadConfigEv@Base 4:15.12
 _ZN15MessageComposer18ImageScalingWidget11qt_metacallEN11QMetaObject4CallEiPPv@Base 4:15.12
 _ZN15MessageComposer18ImageScalingWidget11qt_metacastEPKc@Base 4:15.12
 _ZN15MessageComposer18ImageScalingWidget11writeConfigEv@Base 4:15.12
 _ZN15MessageComposer18ImageScalingWidget12initComboBoxEP9KComboBox@Base 4:15.12
 _ZN15MessageComposer18ImageScalingWidget14resetToDefaultEv@Base 4:15.12
 _ZN15MessageComposer18ImageScalingWidget14updateSettingsEv@Base 4:15.12
 _ZN15MessageComposer18ImageScalingWidget16staticMetaObjectE@Base 4:15.12
 _ZN15MessageComposer18ImageScalingWidget19slotComboboxChangedEi@Base 4:15.12
 _ZN15MessageComposer18ImageScalingWidget19slotHelpLinkClickedERK7QString@Base 4:15.12
 _ZN15MessageComposer18ImageScalingWidget20initWriteImageFormatEv@Base 4:15.12
 _ZN15MessageComposer18ImageScalingWidget23slotSourceFilterClickedEi@Base 4:15.12
 _ZN15MessageComposer18ImageScalingWidget26slotRecipientFilterClickedEi@Base 4:15.12
 _ZN15MessageComposer18ImageScalingWidget30updateEmailsFilterTypeSettingsEv@Base 4:15.12
 _ZN15MessageComposer18ImageScalingWidget30updateFilterSourceTypeSettingsEv@Base 4:15.12
 _ZN15MessageComposer18ImageScalingWidget7changedEv@Base 4:15.12
 _ZN15MessageComposer18ImageScalingWidgetC1EP7QWidget@Base 4:15.12
 _ZN15MessageComposer18ImageScalingWidgetC2EP7QWidget@Base 4:15.12
 _ZN15MessageComposer18ImageScalingWidgetD0Ev@Base 4:15.12
 _ZN15MessageComposer18ImageScalingWidgetD1Ev@Base 4:15.12
 _ZN15MessageComposer18ImageScalingWidgetD2Ev@Base 4:15.12
 _ZN15MessageComposer18RichTextComposerNg11qt_metacallEN11QMetaObject4CallEiPPv@Base 4:15.12
 _ZN15MessageComposer18RichTextComposerNg11qt_metacastEPKc@Base 4:15.12
 _ZN15MessageComposer18RichTextComposerNg15insertSignatureERKN19KIdentityManagement9SignatureENS2_9PlacementE6QFlagsINS2_13AddedTextFlagEE@Base 4:15.12
 _ZN15MessageComposer18RichTextComposerNg16staticMetaObjectE@Base 4:15.12
 _ZN15MessageComposer18RichTextComposerNg17setAutocorrectionEPN9PimCommon14AutoCorrectionE@Base 4:15.12
 _ZN15MessageComposer18RichTextComposerNg20fillComposerTextPartEPNS_8TextPartE@Base 4:15.12
 _ZN15MessageComposer18RichTextComposerNg21processAutoCorrectionEP9QKeyEvent@Base 4:15.12
 _ZN15MessageComposer18RichTextComposerNg25setAutocorrectionLanguageERK7QString@Base 4:15.12
 _ZN15MessageComposer18RichTextComposerNgC1EP7QWidget@Base 4:15.12
 _ZN15MessageComposer18RichTextComposerNgC2EP7QWidget@Base 4:15.12
 _ZN15MessageComposer18RichTextComposerNgD0Ev@Base 4:15.12
 _ZN15MessageComposer18RichTextComposerNgD1Ev@Base 4:15.12
 _ZN15MessageComposer18RichTextComposerNgD2Ev@Base 4:15.12
 _ZN15MessageComposer18SkeletonMessageJob11qt_metacallEN11QMetaObject4CallEiPPv@Base 4:15.12
 _ZN15MessageComposer18SkeletonMessageJob11qt_metacastEPKc@Base 4:15.12
 _ZN15MessageComposer18SkeletonMessageJob11setInfoPartEPNS_8InfoPartE@Base 4:15.12
 _ZN15MessageComposer18SkeletonMessageJob13setGlobalPartEPNS_10GlobalPartE@Base 4:15.12
 _ZN15MessageComposer18SkeletonMessageJob16staticMetaObjectE@Base 4:15.12
 _ZN15MessageComposer18SkeletonMessageJob5startEv@Base 4:15.12
 _ZN15MessageComposer18SkeletonMessageJobC1EPNS_8InfoPartEPNS_10GlobalPartEP7QObject@Base 4:15.12
 _ZN15MessageComposer18SkeletonMessageJobC2EPNS_8InfoPartEPNS_10GlobalPartEP7QObject@Base 4:15.12
 _ZN15MessageComposer18SkeletonMessageJobD0Ev@Base 4:15.12
 _ZN15MessageComposer18SkeletonMessageJobD1Ev@Base 4:15.12
 _ZN15MessageComposer18SkeletonMessageJobD2Ev@Base 4:15.12
 _ZN15MessageComposer19PluginEditorManager11qt_metacallEN11QMetaObject4CallEiPPv@Base 4:16.04.0
 _ZN15MessageComposer19PluginEditorManager11qt_metacastEPKc@Base 4:16.04.0
 _ZN15MessageComposer19PluginEditorManager16staticMetaObjectE@Base 4:16.04.0
 _ZN15MessageComposer19PluginEditorManager4selfEv@Base 4:16.04.0
 _ZN15MessageComposer19PluginEditorManagerC1EP7QObject@Base 4:16.04.0
 _ZN15MessageComposer19PluginEditorManagerC2EP7QObject@Base 4:16.04.0
 _ZN15MessageComposer19PluginEditorManagerD0Ev@Base 4:16.04.0
 _ZN15MessageComposer19PluginEditorManagerD1Ev@Base 4:16.04.0
 _ZN15MessageComposer19PluginEditorManagerD2Ev@Base 4:16.04.0
 _ZN15MessageComposer19SignatureController10cleanSpaceEv@Base 4:15.12
 _ZN15MessageComposer19SignatureController10enableHtmlEv@Base 4:15.12
 _ZN15MessageComposer19SignatureController11qt_metacallEN11QMetaObject4CallEiPPv@Base 4:15.12
 _ZN15MessageComposer19SignatureController11qt_metacastEPKc@Base 4:15.12
 _ZN15MessageComposer19SignatureController14applySignatureERKN19KIdentityManagement9SignatureE@Base 4:15.12
 _ZN15MessageComposer19SignatureController14signatureAddedEv@Base 4:15.12
 _ZN15MessageComposer19SignatureController15appendSignatureEv@Base 4:15.12
 _ZN15MessageComposer19SignatureController15identityChangedEj@Base 4:15.12
 _ZN15MessageComposer19SignatureController16prependSignatureEv@Base 4:15.12
 _ZN15MessageComposer19SignatureController16setIdentityComboEPN19KIdentityManagement13IdentityComboE@Base 4:15.12
 _ZN15MessageComposer19SignatureController16staticMetaObjectE@Base 4:15.12
 _ZN15MessageComposer19SignatureController21applyCurrentSignatureEv@Base 4:15.12
 _ZN15MessageComposer19SignatureController21insertSignatureHelperEN19KIdentityManagement9Signature9PlacementE@Base 4:15.12
 _ZN15MessageComposer19SignatureController23insertSignatureAtCursorEv@Base 4:15.12
 _ZN15MessageComposer19SignatureController6resumeEv@Base 4:15.12
 _ZN15MessageComposer19SignatureController7suspendEv@Base 4:15.12
 _ZN15MessageComposer19SignatureController9setEditorEPNS_18RichTextComposerNgE@Base 4:15.12
 _ZN15MessageComposer19SignatureControllerC1EP7QObject@Base 4:15.12
 _ZN15MessageComposer19SignatureControllerC2EP7QObject@Base 4:15.12
 _ZN15MessageComposer19SignatureControllerD0Ev@Base 4:15.12
 _ZN15MessageComposer19SignatureControllerD1Ev@Base 4:15.12
 _ZN15MessageComposer19SignatureControllerD2Ev@Base 4:15.12
 _ZN15MessageComposer20RecipientLineFactory11qt_metacallEN11QMetaObject4CallEiPPv@Base 4:15.12
 _ZN15MessageComposer20RecipientLineFactory11qt_metacastEPKc@Base 4:15.12
 _ZN15MessageComposer20RecipientLineFactory16staticMetaObjectE@Base 4:15.12
 _ZN15MessageComposer20RecipientLineFactory17maximumRecipientsEv@Base 4:15.12
 _ZN15MessageComposer20RecipientLineFactory7newLineEP7QWidget@Base 4:15.12
 _ZN15MessageComposer20RecipientLineFactoryC1EP7QObject@Base 4:15.12
 _ZN15MessageComposer20RecipientLineFactoryC2EP7QObject@Base 4:15.12
 _ZN15MessageComposer21PluginEditorInterface11qt_metacallEN11QMetaObject4CallEiPPv@Base 4:16.04.0
 _ZN15MessageComposer21PluginEditorInterface11qt_metacastEPKc@Base 4:16.04.0
 _ZN15MessageComposer21PluginEditorInterface13setActionTypeERKNS_10ActionTypeE@Base 4:16.04.0
 _ZN15MessageComposer21PluginEditorInterface15setParentWidgetEP7QWidget@Base 4:16.04.0
 _ZN15MessageComposer21PluginEditorInterface16staticMetaObjectE@Base 4:16.04.0
 _ZN15MessageComposer21PluginEditorInterface17setRichTextEditorEPN12KPIMTextEdit14RichTextEditorE@Base 4:16.04.0
 _ZN15MessageComposer21PluginEditorInterface18actionXmlExtensionENS_10ActionType4TypeE@Base 4:16.04.0
 _ZN15MessageComposer21PluginEditorInterface19emitPluginActivatedEPS0_@Base 4:16.04.0
 _ZN15MessageComposer21PluginEditorInterface19showConfigureDialogEP7QWidget@Base 4:16.04.0
 _ZN15MessageComposer21PluginEditorInterfaceC1EP7QObject@Base 4:16.04.0
 _ZN15MessageComposer21PluginEditorInterfaceC2EP7QObject@Base 4:16.04.0
 _ZN15MessageComposer21PluginEditorInterfaceD0Ev@Base 4:16.04.0
 _ZN15MessageComposer21PluginEditorInterfaceD1Ev@Base 4:16.04.0
 _ZN15MessageComposer21PluginEditorInterfaceD2Ev@Base 4:16.04.0
 _ZN15MessageComposer22EmailAddressResolveJob11qt_metacallEN11QMetaObject4CallEiPPv@Base 4:15.12
 _ZN15MessageComposer22EmailAddressResolveJob11qt_metacastEPKc@Base 4:15.12
 _ZN15MessageComposer22EmailAddressResolveJob16staticMetaObjectE@Base 4:15.12
 _ZN15MessageComposer22EmailAddressResolveJob20setDefaultDomainNameERK7QString@Base 4:15.12
 _ZN15MessageComposer22EmailAddressResolveJob22slotAliasExpansionDoneEP4KJob@Base 4:15.12
 _ZN15MessageComposer22EmailAddressResolveJob5setCcERK11QStringList@Base 4:15.12
 _ZN15MessageComposer22EmailAddressResolveJob5setToERK11QStringList@Base 4:15.12
 _ZN15MessageComposer22EmailAddressResolveJob5startEv@Base 4:15.12
 _ZN15MessageComposer22EmailAddressResolveJob6setBccERK11QStringList@Base 4:15.12
 _ZN15MessageComposer22EmailAddressResolveJob7setFromERK7QString@Base 4:15.12
 _ZN15MessageComposer22EmailAddressResolveJobC1EP7QObject@Base 4:15.12
 _ZN15MessageComposer22EmailAddressResolveJobC2EP7QObject@Base 4:15.12
 _ZN15MessageComposer22EmailAddressResolveJobD0Ev@Base 4:15.12
 _ZN15MessageComposer22EmailAddressResolveJobD1Ev@Base 4:15.12
 _ZN15MessageComposer22EmailAddressResolveJobD2Ev@Base 4:15.12
 _ZN15MessageComposer23MessageComposerSettings11qt_metacallEN11QMetaObject4CallEiPPv@Base 4:15.12
 _ZN15MessageComposer23MessageComposerSettings11qt_metacastEPKc@Base 4:15.12
 _ZN15MessageComposer23MessageComposerSettings11requestSyncEv@Base 4:15.12
 _ZN15MessageComposer23MessageComposerSettings11slotSyncNowEv@Base 4:15.12
 _ZN15MessageComposer23MessageComposerSettings16staticMetaObjectE@Base 4:15.12
 _ZN15MessageComposer23MessageComposerSettings4selfEv@Base 4:15.12
 _ZN15MessageComposer23MessageComposerSettings5mSelfE@Base 4:15.12
 _ZN15MessageComposer23MessageComposerSettingsC1Ev@Base 4:15.12
 _ZN15MessageComposer23MessageComposerSettingsC2Ev@Base 4:15.12
 _ZN15MessageComposer23MessageComposerSettingsD0Ev@Base 4:15.12
 _ZN15MessageComposer23MessageComposerSettingsD1Ev@Base 4:15.12
 _ZN15MessageComposer23MessageComposerSettingsD2Ev@Base 4:15.12
 _ZN15MessageComposer24AttachmentControllerBase11addOwnVcardEb@Base 4:15.12
 _ZN15MessageComposer24AttachmentControllerBase11attachFilesERK5QListI4QUrlERK7QString@Base 4:15.12
 _ZN15MessageComposer24AttachmentControllerBase11qt_metacallEN11QMetaObject4CallEiPPv@Base 4:15.12
 _ZN15MessageComposer24AttachmentControllerBase11qt_metacastEPKc@Base 4:15.12
 _ZN15MessageComposer24AttachmentControllerBase12fileAttachedEv@Base 4:15.12
 _ZN15MessageComposer24AttachmentControllerBase13addAttachmentE14QSharedPointerIN11MessageCore14AttachmentPartEE@Base 4:15.12
 _ZN15MessageComposer24AttachmentControllerBase13addAttachmentERK4QUrl@Base 4:15.12
 _ZN15MessageComposer24AttachmentControllerBase13createActionsEv@Base 4:15.12
 _ZN15MessageComposer24AttachmentControllerBase13slotPutResultEP4KJob@Base 4:15.12
 _ZN15MessageComposer24AttachmentControllerBase14actionsCreatedEv@Base 4:15.12
 _ZN15MessageComposer24AttachmentControllerBase14addAttachmentsERK5QListI4QUrlE@Base 4:15.12
 _ZN15MessageComposer24AttachmentControllerBase14editAttachmentE14QSharedPointerIN11MessageCore14AttachmentPartEEN13MessageViewer13EditorWatcher14OpenWithOptionE@Base 4:15.12
 _ZN15MessageComposer24AttachmentControllerBase14openAttachmentE14QSharedPointerIN11MessageCore14AttachmentPartEE@Base 4:15.12
 _ZN15MessageComposer24AttachmentControllerBase14setSignEnabledEb@Base 4:15.12
 _ZN15MessageComposer24AttachmentControllerBase14showAttachmentEPN5KMime7ContentERK10QByteArray@Base 4:15.12
 _ZN15MessageComposer24AttachmentControllerBase14viewAttachmentE14QSharedPointerIN11MessageCore14AttachmentPartEE@Base 4:15.12
 _ZN15MessageComposer24AttachmentControllerBase15attachDirectoryERK4QUrl@Base 4:15.12
 _ZN15MessageComposer24AttachmentControllerBase15exportPublicKeyERK7QString@Base 4:15.12
 _ZN15MessageComposer24AttachmentControllerBase15showAttachVcardEv@Base 4:15.12
 _ZN15MessageComposer24AttachmentControllerBase15showContextMenuEv@Base 4:15.12
 _ZN15MessageComposer24AttachmentControllerBase16refreshSelectionEv@Base 4:15.12
 _ZN15MessageComposer24AttachmentControllerBase16saveAttachmentAsE14QSharedPointerIN11MessageCore14AttachmentPartEE@Base 4:15.12
 _ZN15MessageComposer24AttachmentControllerBase16setSelectedPartsERK5QListI14QSharedPointerIN11MessageCore14AttachmentPartEEE@Base 4:15.12
 _ZN15MessageComposer24AttachmentControllerBase16staticMetaObjectE@Base 4:15.12
 _ZN15MessageComposer24AttachmentControllerBase17attachMyPublicKeyEv@Base 4:15.12
 _ZN15MessageComposer24AttachmentControllerBase17setAttachOwnVcardEb@Base 4:15.12
 _ZN15MessageComposer24AttachmentControllerBase17setEncryptEnabledEb@Base 4:15.12
 _ZN15MessageComposer24AttachmentControllerBase18compressAttachmentE14QSharedPointerIN11MessageCore14AttachmentPartEEb@Base 4:15.12
 _ZN15MessageComposer24AttachmentControllerBase18editAttachmentWithE14QSharedPointerIN11MessageCore14AttachmentPartEE@Base 4:15.12
 _ZN15MessageComposer24AttachmentControllerBase18slotOpenWithActionEP7QAction@Base 4:15.12
 _ZN15MessageComposer24AttachmentControllerBase18slotOpenWithDialogEv@Base 4:15.12
 _ZN15MessageComposer24AttachmentControllerBase20addAttachmentUrlSyncERK4QUrl@Base 4:15.12
 _ZN15MessageComposer24AttachmentControllerBase20attachmentPropertiesE14QSharedPointerIN11MessageCore14AttachmentPartEE@Base 4:15.12
 _ZN15MessageComposer24AttachmentControllerBase21byteArrayToRemoteFileERK10QByteArrayRK4QUrlb@Base 4:15.12
 _ZN15MessageComposer24AttachmentControllerBase21enableAttachPublicKeyEb@Base 4:15.12
 _ZN15MessageComposer24AttachmentControllerBase21selectedAllAttachmentEv@Base 4:15.12
 _ZN15MessageComposer24AttachmentControllerBase22setIdentityHasOwnVcardEb@Base 4:15.12
 _ZN15MessageComposer24AttachmentControllerBase23enableAttachMyPublicKeyEb@Base 4:15.12
 _ZN15MessageComposer24AttachmentControllerBase25showAttachPublicKeyDialogEv@Base 4:15.12
 _ZN15MessageComposer24AttachmentControllerBase27showAddAttachmentFileDialogEv@Base 4:15.12
 _ZN15MessageComposer24AttachmentControllerBase42showAddAttachmentCompressedDirectoryDialogEv@Base 4:15.12
 _ZN15MessageComposer24AttachmentControllerBase8openWithERK28QExplicitlySharedDataPointerI8KServiceE@Base 4:15.12
 _ZN15MessageComposer24AttachmentControllerBaseC1EPNS_15AttachmentModelEP7QWidgetP17KActionCollection@Base 4:15.12
 _ZN15MessageComposer24AttachmentControllerBaseC2EPNS_15AttachmentModelEP7QWidgetP17KActionCollection@Base 4:15.12
 _ZN15MessageComposer24AttachmentControllerBaseD0Ev@Base 4:15.12
 _ZN15MessageComposer24AttachmentControllerBaseD1Ev@Base 4:15.12
 _ZN15MessageComposer24AttachmentControllerBaseD2Ev@Base 4:15.12
 _ZN15MessageComposer25FollowupReminderCreateJob10setSubjectERK7QString@Base 4:15.12
 _ZN15MessageComposer25FollowupReminderCreateJob11qt_metacallEN11QMetaObject4CallEiPPv@Base 4:15.12
 _ZN15MessageComposer25FollowupReminderCreateJob11qt_metacastEPKc@Base 4:15.12
 _ZN15MessageComposer25FollowupReminderCreateJob12setMessageIdERK7QString@Base 4:15.12
 _ZN15MessageComposer25FollowupReminderCreateJob16staticMetaObjectE@Base 4:15.12
 _ZN15MessageComposer25FollowupReminderCreateJob17setCollectionToDoERKN7Akonadi10CollectionE@Base 4:15.12
 _ZN15MessageComposer25FollowupReminderCreateJob17slotCreateNewTodoEP4KJob@Base 4:15.12
 _ZN15MessageComposer25FollowupReminderCreateJob23setFollowUpReminderDateERK5QDate@Base 4:15.12
 _ZN15MessageComposer25FollowupReminderCreateJob24setOriginalMessageItemIdEx@Base 4:15.12
 _ZN15MessageComposer25FollowupReminderCreateJob25writeFollowupReminderInfoEv@Base 4:15.12
 _ZN15MessageComposer25FollowupReminderCreateJob5setToERK7QString@Base 4:15.12
 _ZN15MessageComposer25FollowupReminderCreateJob5startEv@Base 4:15.12
 _ZN15MessageComposer25FollowupReminderCreateJobC1EP7QObject@Base 4:15.12
 _ZN15MessageComposer25FollowupReminderCreateJobC2EP7QObject@Base 4:15.12
 _ZN15MessageComposer25FollowupReminderCreateJobD0Ev@Base 4:15.12
 _ZN15MessageComposer25FollowupReminderCreateJobD1Ev@Base 4:15.12
 _ZN15MessageComposer25FollowupReminderCreateJobD2Ev@Base 4:15.12
 _ZN15MessageComposer26AttachmentFromPublicKeyJob11qt_metacallEN11QMetaObject4CallEiPPv@Base 4:15.12
 _ZN15MessageComposer26AttachmentFromPublicKeyJob11qt_metacastEPKc@Base 4:15.12
 _ZN15MessageComposer26AttachmentFromPublicKeyJob14setFingerprintERK7QString@Base 4:15.12
 _ZN15MessageComposer26AttachmentFromPublicKeyJob16staticMetaObjectE@Base 4:15.12
 _ZN15MessageComposer26AttachmentFromPublicKeyJob7doStartEv@Base 4:15.12
 _ZN15MessageComposer26AttachmentFromPublicKeyJobC1ERK7QStringP7QObject@Base 4:15.12
 _ZN15MessageComposer26AttachmentFromPublicKeyJobC2ERK7QStringP7QObject@Base 4:15.12
 _ZN15MessageComposer26AttachmentFromPublicKeyJobD0Ev@Base 4:15.12
 _ZN15MessageComposer26AttachmentFromPublicKeyJobD1Ev@Base 4:15.12
 _ZN15MessageComposer26AttachmentFromPublicKeyJobD2Ev@Base 4:15.12
 _ZN15MessageComposer26RichTextComposerSignatures11qt_metacallEN11QMetaObject4CallEiPPv@Base 4:15.12
 _ZN15MessageComposer26RichTextComposerSignatures11qt_metacastEPKc@Base 4:15.12
 _ZN15MessageComposer26RichTextComposerSignatures15cleanWhitespaceERKN19KIdentityManagement9SignatureE@Base 4:15.12
 _ZN15MessageComposer26RichTextComposerSignatures16replaceSignatureERKN19KIdentityManagement9SignatureES4_@Base 4:15.12
 _ZN15MessageComposer26RichTextComposerSignatures16staticMetaObjectE@Base 4:15.12
 _ZN15MessageComposer26RichTextComposerSignaturesC1EPNS_18RichTextComposerNgEP7QObject@Base 4:15.12
 _ZN15MessageComposer26RichTextComposerSignaturesC2EPNS_18RichTextComposerNgEP7QObject@Base 4:15.12
 _ZN15MessageComposer26RichTextComposerSignaturesD0Ev@Base 4:15.12
 _ZN15MessageComposer26RichTextComposerSignaturesD1Ev@Base 4:15.12
 _ZN15MessageComposer26RichTextComposerSignaturesD2Ev@Base 4:15.12
 _ZN15MessageComposer27MessageComposerSettingsBase4selfEv@Base 4:15.12
 _ZN15MessageComposer27MessageComposerSettingsBaseC1Ev@Base 4:15.12
 _ZN15MessageComposer27MessageComposerSettingsBaseC2Ev@Base 4:15.12
 _ZN15MessageComposer27MessageComposerSettingsBaseD0Ev@Base 4:15.12
 _ZN15MessageComposer27MessageComposerSettingsBaseD1Ev@Base 4:15.12
 _ZN15MessageComposer27MessageComposerSettingsBaseD2Ev@Base 4:15.12
 _ZN15MessageComposer32FollowUpReminderSelectDateDialog11qt_metacallEN11QMetaObject4CallEiPPv@Base 4:15.12
 _ZN15MessageComposer32FollowUpReminderSelectDateDialog11qt_metacastEPKc@Base 4:15.12
 _ZN15MessageComposer32FollowUpReminderSelectDateDialog14updateOkButtonEv@Base 4:15.12
 _ZN15MessageComposer32FollowUpReminderSelectDateDialog15slotDateChangedEv@Base 4:15.12
 _ZN15MessageComposer32FollowUpReminderSelectDateDialog16staticMetaObjectE@Base 4:15.12
 _ZN15MessageComposer32FollowUpReminderSelectDateDialog6acceptEv@Base 4:15.12
 _ZN15MessageComposer32FollowUpReminderSelectDateDialogC1EP7QWidgetP18QAbstractItemModel@Base 4:15.12
 _ZN15MessageComposer32FollowUpReminderSelectDateDialogC2EP7QWidgetP18QAbstractItemModel@Base 4:15.12
 _ZN15MessageComposer32FollowUpReminderSelectDateDialogD0Ev@Base 4:15.12
 _ZN15MessageComposer32FollowUpReminderSelectDateDialogD1Ev@Base 4:15.12
 _ZN15MessageComposer32FollowUpReminderSelectDateDialogD2Ev@Base 4:15.12
 _ZN15MessageComposer33AttachmentVcardFromAddressBookJob11qt_metacallEN11QMetaObject4CallEiPPv@Base 4:15.12
 _ZN15MessageComposer33AttachmentVcardFromAddressBookJob11qt_metacastEPKc@Base 4:15.12
 _ZN15MessageComposer33AttachmentVcardFromAddressBookJob13addAttachmentERK10QByteArrayRK7QString@Base 4:15.12
 _ZN15MessageComposer33AttachmentVcardFromAddressBookJob14invalidContactEv@Base 4:15.12
 _ZN15MessageComposer33AttachmentVcardFromAddressBookJob16staticMetaObjectE@Base 4:15.12
 _ZN15MessageComposer33AttachmentVcardFromAddressBookJob21slotExpandGroupResultEP4KJob@Base 4:15.12
 _ZN15MessageComposer33AttachmentVcardFromAddressBookJob7doStartEv@Base 4:15.12
 _ZN15MessageComposer33AttachmentVcardFromAddressBookJobC1ERKN7Akonadi4ItemEP7QObject@Base 4:15.12
 _ZN15MessageComposer33AttachmentVcardFromAddressBookJobC2ERKN7Akonadi4ItemEP7QObject@Base 4:15.12
 _ZN15MessageComposer33AttachmentVcardFromAddressBookJobD0Ev@Base 4:15.12
 _ZN15MessageComposer33AttachmentVcardFromAddressBookJobD1Ev@Base 4:15.12
 _ZN15MessageComposer33AttachmentVcardFromAddressBookJobD2Ev@Base 4:15.12
 _ZN15MessageComposer4Util13selectCharsetERK5QListI10QByteArrayERK7QString@Base 4:15.12
 _ZN15MessageComposer4Util18AttachmentKeywordsEv@Base 4:15.12
 _ZN15MessageComposer4Util21cleanedUpHeaderStringERK7QString@Base 4:15.12
 _ZN15MessageComposer4Util25removeNotNecessaryHeadersERK14QSharedPointerIN5KMime7MessageEE@Base 4:15.12
 _ZN15MessageComposer4Util26sendMailDispatcherIsOnlineEP7QWidget@Base 4:15.12
 _ZN15MessageComposer7JobBase10globalPartEv@Base 4:15.12
 _ZN15MessageComposer7JobBase11qt_metacallEN11QMetaObject4CallEiPPv@Base 4:15.12
 _ZN15MessageComposer7JobBase11qt_metacastEPKc@Base 4:15.12
 _ZN15MessageComposer7JobBase16staticMetaObjectE@Base 4:15.12
 _ZN15MessageComposer7JobBaseC1EP7QObject@Base 4:15.12
 _ZN15MessageComposer7JobBaseC1ERNS_14JobBasePrivateEP7QObject@Base 4:15.12
 _ZN15MessageComposer7JobBaseC2EP7QObject@Base 4:15.12
 _ZN15MessageComposer7JobBaseC2ERNS_14JobBasePrivateEP7QObject@Base 4:15.12
 _ZN15MessageComposer7JobBaseD0Ev@Base 4:15.12
 _ZN15MessageComposer7JobBaseD1Ev@Base 4:15.12
 _ZN15MessageComposer7JobBaseD2Ev@Base 4:15.12
 _ZN15MessageComposer7SignJob10setContentEPN5KMime7ContentE@Base 4:15.12
 _ZN15MessageComposer7SignJob11origContentEv@Base 4:15.12
 _ZN15MessageComposer7SignJob11qt_metacallEN11QMetaObject4CallEiPPv@Base 4:15.12
 _ZN15MessageComposer7SignJob11qt_metacastEPKc@Base 4:15.12
 _ZN15MessageComposer7SignJob14setSigningKeysERSt6vectorIN5GpgME3KeyESaIS3_EE@Base 4:15.12
 _ZN15MessageComposer7SignJob16staticMetaObjectE@Base 4:15.12
 _ZN15MessageComposer7SignJob22setCryptoMessageFormatEN4Kleo19CryptoMessageFormatE@Base 4:15.12
 _ZN15MessageComposer7SignJob7processEv@Base 4:15.12
 _ZN15MessageComposer7SignJobC1EP7QObject@Base 4:15.12
 _ZN15MessageComposer7SignJobC2EP7QObject@Base 4:15.12
 _ZN15MessageComposer7SignJobD0Ev@Base 4:15.12
 _ZN15MessageComposer7SignJobD1Ev@Base 4:15.12
 _ZN15MessageComposer7SignJobD2Ev@Base 4:15.12
 _ZN15MessageComposer8Composer10slotResultEP4KJob@Base 4:15.12
 _ZN15MessageComposer8Composer11qt_metacallEN11QMetaObject4CallEiPPv@Base 4:15.12
 _ZN15MessageComposer8Composer11qt_metacastEPKc@Base 4:15.12
 _ZN15MessageComposer8Composer11setAutoSaveEb@Base 4:15.12
 _ZN15MessageComposer8Composer11setNoCryptoEb@Base 4:15.12
 _ZN15MessageComposer8Composer14setSigningKeysERSt6vectorIN5GpgME3KeyESaIS3_EE@Base 4:15.12
 _ZN15MessageComposer8Composer16staticMetaObjectE@Base 4:15.12
 _ZN15MessageComposer8Composer17addAttachmentPartE14QSharedPointerIN11MessageCore14AttachmentPartEEb@Base 4:15.12
 _ZN15MessageComposer8Composer17setEncryptionKeysERK5QListI5QPairI11QStringListSt6vectorIN5GpgME3KeyESaIS6_EEEE@Base 4:15.12
 _ZN15MessageComposer8Composer17setSignAndEncryptEbb@Base 4:15.12
 _ZN15MessageComposer8Composer18addAttachmentPartsERK5QListI14QSharedPointerIN11MessageCore14AttachmentPartEEEb@Base 4:15.12
 _ZN15MessageComposer8Composer20removeAttachmentPartE14QSharedPointerIN11MessageCore14AttachmentPartEE@Base 4:15.12
 _ZN15MessageComposer8Composer22setMessageCryptoFormatEN4Kleo19CryptoMessageFormatE@Base 4:15.12
 _ZN15MessageComposer8Composer5startEv@Base 4:15.12
 _ZN15MessageComposer8ComposerC1EP7QObject@Base 4:15.12
 _ZN15MessageComposer8ComposerC2EP7QObject@Base 4:15.12
 _ZN15MessageComposer8ComposerD0Ev@Base 4:15.12
 _ZN15MessageComposer8ComposerD1Ev@Base 4:15.12
 _ZN15MessageComposer8ComposerD2Ev@Base 4:15.12
 _ZN15MessageComposer8InfoPart10setReplyToERK7QString@Base 4:15.12
 _ZN15MessageComposer8InfoPart10setSubjectERK7QString@Base 4:15.12
 _ZN15MessageComposer8InfoPart11qt_metacallEN11QMetaObject4CallEiPPv@Base 4:15.12
 _ZN15MessageComposer8InfoPart11qt_metacastEPKc@Base 4:15.12
 _ZN15MessageComposer8InfoPart12setInReplyToERK7QString@Base 4:15.12
 _ZN15MessageComposer8InfoPart12setUserAgentERK7QString@Base 4:15.12
 _ZN15MessageComposer8InfoPart13setReferencesERK7QString@Base 4:15.12
 _ZN15MessageComposer8InfoPart14setTransportIdEi@Base 4:15.12
 _ZN15MessageComposer8InfoPart15setExtraHeadersERK7QVectorIPN5KMime7Headers4BaseEE@Base 4:15.12
 _ZN15MessageComposer8InfoPart16staticMetaObjectE@Base 4:15.12
 _ZN15MessageComposer8InfoPart5setCcERK11QStringList@Base 4:15.12
 _ZN15MessageComposer8InfoPart5setToERK11QStringList@Base 4:15.12
 _ZN15MessageComposer8InfoPart6setBccERK11QStringList@Base 4:15.12
 _ZN15MessageComposer8InfoPart6setFccERK7QString@Base 4:15.12
 _ZN15MessageComposer8InfoPart7setFromERK7QString@Base 4:15.12
 _ZN15MessageComposer8InfoPart9setUrgentEb@Base 4:15.12
 _ZN15MessageComposer8InfoPartC1EP7QObject@Base 4:15.12
 _ZN15MessageComposer8InfoPartC2EP7QObject@Base 4:15.12
 _ZN15MessageComposer8InfoPartD0Ev@Base 4:15.12
 _ZN15MessageComposer8InfoPartD1Ev@Base 4:15.12
 _ZN15MessageComposer8InfoPartD2Ev@Base 4:15.12
 _ZN15MessageComposer8TextPart11qt_metacallEN11QMetaObject4CallEiPPv@Base 4:15.12
 _ZN15MessageComposer8TextPart11qt_metacastEPKc@Base 4:15.12
 _ZN15MessageComposer8TextPart12setCleanHtmlERK7QString@Base 4:15.12
 _ZN15MessageComposer8TextPart16staticMetaObjectE@Base 4:15.12
 _ZN15MessageComposer8TextPart17setCleanPlainTextERK7QString@Base 4:15.12
 _ZN15MessageComposer8TextPart17setEmbeddedImagesERK5QListI14QSharedPointerIN12KPIMTextEdit13EmbeddedImageEEE@Base 4:15.12
 _ZN15MessageComposer8TextPart17setWarnBadCharsetEb@Base 4:15.12
 _ZN15MessageComposer8TextPart19setWrappedPlainTextERK7QString@Base 4:15.12
 _ZN15MessageComposer8TextPart22setWordWrappingEnabledEb@Base 4:15.12
 _ZN15MessageComposer8TextPartC1EP7QObject@Base 4:15.12
 _ZN15MessageComposer8TextPartC2EP7QObject@Base 4:15.12
 _ZN15MessageComposer8TextPartD0Ev@Base 4:15.12
 _ZN15MessageComposer8TextPartD1Ev@Base 4:15.12
 _ZN15MessageComposer8TextPartD2Ev@Base 4:15.12
 _ZN15MessageComposer9Recipient13allTypeLabelsEv@Base 4:15.12
 _ZN15MessageComposer9Recipient5clearEv@Base 4:15.12
 _ZN15MessageComposer9Recipient7setNameERK7QString@Base 4:15.12
 _ZN15MessageComposer9Recipient7setTypeENS0_4TypeE@Base 4:15.12
 _ZN15MessageComposer9Recipient8idToTypeEi@Base 4:15.12
 _ZN15MessageComposer9Recipient8setEmailERK7QString@Base 4:15.12
 _ZN15MessageComposer9Recipient8typeToIdENS0_4TypeE@Base 4:15.12
 _ZN15MessageComposer9Recipient9typeLabelENS0_4TypeE@Base 4:15.12
 _ZN15MessageComposer9RecipientC1ERK7QStringNS0_4TypeE@Base 4:15.12
 _ZN15MessageComposer9RecipientC2ERK7QStringNS0_4TypeE@Base 4:15.12
 _ZN15MessageComposer9RecipientD0Ev@Base 4:15.12
 _ZN15MessageComposer9RecipientD1Ev@Base 4:15.12
 _ZN15MessageComposer9RecipientD2Ev@Base 4:15.12
 (optional=templinst)_ZN7Akonadi4Item14setPayloadImplI14QSharedPointerIN5KMime7MessageEEEENSt9enable_ifIXntsrNS_8Internal12PayloadTraitIT_EE13isPolymorphicEvE4typeERKS9_@Base 4:15.12
 (optional=templinst)_ZN7Akonadi4Item14setPayloadImplI14QSharedPointerIN8KCalCore9IncidenceEEEENSt9enable_ifIXntsrNS_8Internal12PayloadTraitIT_EE13isPolymorphicEvE4typeERKS9_@Base 4:15.12
 (optional=templinst)_ZN7Akonadi4Item14setPayloadImplIN9KContacts12ContactGroupEEENSt9enable_ifIXntsrNS_8Internal12PayloadTraitIT_EE13isPolymorphicEvE4typeERKS7_@Base 4:15.12
 (optional=templinst)_ZN7Akonadi4Item14setPayloadImplIN9KContacts9AddresseeEEENSt9enable_ifIXntsrNS_8Internal12PayloadTraitIT_EE13isPolymorphicEvE4typeERKS7_@Base 4:15.12
 (optional=templinst)_ZN7QObject7connectIM4KJobFvPS1_NS1_14QPrivateSignalEEMN15MessageComposer16ComposerViewBaseEFvS2_EEEN11QMetaObject10ConnectionEPKN9QtPrivate15FunctionPointerIT_E6ObjectESE_PKNSD_IT0_E6ObjectESJ_N2Qt14ConnectionTypeE@Base 4:16.04.1
 (arch=!hppa !sparc64)_ZN9QHashData9hasShrunkEv@Base 4:16.04.1
 (optional=templinst)_ZNK12KConfigGroup9readEntryI10QByteArrayEET_PKcRKS2_@Base 4:15.12
 (optional=templinst)_ZNK12KConfigGroup9readEntryI5QSizeEET_PKcRKS2_@Base 4:15.12
 (optional=templinst|arch=!arm64)_ZNK12KConfigGroup9readEntryIiEET_PKcRKS1_@Base 4:15.12
 _ZNK15MessageComposer10ActionType4typeEv@Base 4:16.04.0
 _ZNK15MessageComposer10ActionType6actionEv@Base 4:16.04.0
 _ZNK15MessageComposer10EncryptJob10metaObjectEv@Base 4:15.12
 _ZNK15MessageComposer10EncryptJob10recipientsEv@Base 4:15.12
 _ZNK15MessageComposer10EncryptJob14encryptionKeysEv@Base 4:15.12
 _ZNK15MessageComposer10GlobalPart10metaObjectEv@Base 4:15.12
 _ZNK15MessageComposer10GlobalPart12MDNRequestedEv@Base 4:15.12
 _ZNK15MessageComposer10GlobalPart12isGuiEnabledEv@Base 4:15.12
 _ZNK15MessageComposer10GlobalPart13is8BitAllowedEv@Base 4:15.12
 _ZNK15MessageComposer10GlobalPart18parentWidgetForGuiEv@Base 4:15.12
 _ZNK15MessageComposer10GlobalPart24isFallbackCharsetEnabledEv@Base 4:15.12
 _ZNK15MessageComposer10GlobalPart8charsetsEb@Base 4:15.12
 _ZNK15MessageComposer11MainTextJob10metaObjectEv@Base 4:15.12
 _ZNK15MessageComposer11MainTextJob8textPartEv@Base 4:15.12
 _ZNK15MessageComposer11MessagePart10metaObjectEv@Base 4:15.12
 _ZNK15MessageComposer12ImageScaling10imageArrayEv@Base 4:15.12
 _ZNK15MessageComposer12ImageScaling8mimetypeEv@Base 4:15.12
 _ZNK15MessageComposer12MultipartJob10metaObjectEv@Base 4:15.12
 _ZNK15MessageComposer12MultipartJob16multipartSubtypeEv@Base 4:15.12
 _ZNK15MessageComposer12PluginEditor10metaObjectEv@Base 4:16.04.0
 _ZNK15MessageComposer12PluginEditor5orderEv@Base 4:16.04.0
 _ZNK15MessageComposer13AkonadiSender10metaObjectEv@Base 4:15.12
 _ZNK15MessageComposer13AttachmentJob10metaObjectEv@Base 4:15.12
 _ZNK15MessageComposer13AttachmentJob14attachmentPartEv@Base 4:15.12
 _ZNK15MessageComposer13SinglepartJob10metaObjectEv@Base 4:15.12
 _ZNK15MessageComposer13SinglepartJob4dataEv@Base 4:15.12
 _ZNK15MessageComposer14ContentJobBase10metaObjectEv@Base 4:15.12
 _ZNK15MessageComposer14ContentJobBase12extraContentEv@Base 4:15.12
 _ZNK15MessageComposer14ContentJobBase7contentEv@Base 4:15.12
 _ZNK15MessageComposer14SignEncryptJob10metaObjectEv@Base 4:15.12
 _ZNK15MessageComposer14SignEncryptJob10recipientsEv@Base 4:15.12
 _ZNK15MessageComposer14SignEncryptJob14encryptionKeysEv@Base 4:15.12
 _ZNK15MessageComposer14TransparentJob10metaObjectEv@Base 4:15.12
 _ZNK15MessageComposer15AttachmentModel10headerDataEiN2Qt11OrientationEi@Base 4:15.12
 _ZNK15MessageComposer15AttachmentModel10isModifiedEv@Base 4:15.12
 _ZNK15MessageComposer15AttachmentModel10metaObjectEv@Base 4:15.12
 _ZNK15MessageComposer15AttachmentModel11attachmentsEv@Base 4:15.12
 _ZNK15MessageComposer15AttachmentModel11columnCountERK11QModelIndex@Base 4:15.12
 _ZNK15MessageComposer15AttachmentModel13isSignEnabledEv@Base 4:15.12
 _ZNK15MessageComposer15AttachmentModel14isSignSelectedEv@Base 4:15.12
 _ZNK15MessageComposer15AttachmentModel16isEncryptEnabledEv@Base 4:15.12
 _ZNK15MessageComposer15AttachmentModel17isEncryptSelectedEv@Base 4:15.12
 _ZNK15MessageComposer15AttachmentModel20isAutoDisplayEnabledEv@Base 4:15.12
 _ZNK15MessageComposer15AttachmentModel20supportedDropActionsEv@Base 4:15.12
 _ZNK15MessageComposer15AttachmentModel4dataERK11QModelIndexi@Base 4:15.12
 _ZNK15MessageComposer15AttachmentModel5flagsERK11QModelIndex@Base 4:15.12
 _ZNK15MessageComposer15AttachmentModel5indexEiiRK11QModelIndex@Base 4:15.12
 _ZNK15MessageComposer15AttachmentModel6parentERK11QModelIndex@Base 4:15.12
 _ZNK15MessageComposer15AttachmentModel8mimeDataERK5QListI11QModelIndexE@Base 4:15.12
 _ZNK15MessageComposer15AttachmentModel8rowCountERK11QModelIndex@Base 4:15.12
 _ZNK15MessageComposer15AttachmentModel9mimeTypesEv@Base 4:15.12
 _ZNK15MessageComposer16AliasesExpandJob10metaObjectEv@Base 4:15.12
 _ZNK15MessageComposer16AliasesExpandJob22emptyDistributionListsEv@Base 4:15.12
 _ZNK15MessageComposer16AliasesExpandJob9addressesEv@Base 4:15.12
 _ZNK15MessageComposer16ComposerLineEdit10metaObjectEv@Base 4:15.12
 _ZNK15MessageComposer16ComposerViewBase10dictionaryEv@Base 4:15.12
 _ZNK15MessageComposer16ComposerViewBase10metaObjectEv@Base 4:15.12
 _ZNK15MessageComposer16ComposerViewBase11isComposingEv@Base 4:15.12
 _ZNK15MessageComposer16ComposerViewBase12followUpDateEv@Base 4:15.12
 _ZNK15MessageComposer16ComposerViewBase13sendLaterInfoEv@Base 4:15.12
 _ZNK15MessageComposer16ComposerViewBase16autoSaveIntervalEv@Base 4:15.12
 _ZNK15MessageComposer16ComposerViewBase17transportComboBoxEv@Base 4:15.12
 _ZNK15MessageComposer16ComposerViewBase18followUpCollectionEv@Base 4:15.12
 _ZNK15MessageComposer16ComposerViewBase20defaultSpecialTargetEv@Base 4:15.12
 _ZNK15MessageComposer16ComposerViewBase2ccEv@Base 4:15.12
 _ZNK15MessageComposer16ComposerViewBase2toEv@Base 4:15.12
 _ZNK15MessageComposer16ComposerViewBase3bccEv@Base 4:15.12
 _ZNK15MessageComposer16ComposerViewBase4fromEv@Base 4:15.12
 _ZNK15MessageComposer16ComposerViewBase6editorEv@Base 4:15.12
 _ZNK15MessageComposer16ComposerViewBase7replyToEv@Base 4:15.12
 _ZNK15MessageComposer16ComposerViewBase7subjectEv@Base 4:15.12
 _ZNK15MessageComposer16ComposerViewBase8fccComboEv@Base 4:15.12
 _ZNK15MessageComposer16RecipientsEditor10activeLineEv@Base 4:15.12
 _ZNK15MessageComposer16RecipientsEditor10metaObjectEv@Base 4:15.12
 _ZNK15MessageComposer16RecipientsEditor10recipientsEv@Base 4:15.12
 _ZNK15MessageComposer16RecipientsEditor15activeRecipientEv@Base 4:15.12
 _ZNK15MessageComposer16RecipientsEditor15recipientStringENS_9Recipient4TypeE@Base 4:15.12
 _ZNK15MessageComposer16RecipientsEditor19recipientStringListENS_9Recipient4TypeE@Base 4:15.12
 _ZNK15MessageComposer16RecipientsEditor6pickerEv@Base 4:15.12
 _ZNK15MessageComposer17InsertTextFileJob10metaObjectEv@Base 4:15.12
 _ZNK15MessageComposer18ImageScalingWidget10metaObjectEv@Base 4:15.12
 _ZNK15MessageComposer18RichTextComposerNg10metaObjectEv@Base 4:15.12
 _ZNK15MessageComposer18RichTextComposerNg11toCleanHtmlEv@Base 4:15.12
 _ZNK15MessageComposer18RichTextComposerNg14autocorrectionEv@Base 4:15.12
 _ZNK15MessageComposer18RichTextComposerNg17composerSignatureEv@Base 4:15.12
 _ZNK15MessageComposer18SkeletonMessageJob10globalPartEv@Base 4:15.12
 _ZNK15MessageComposer18SkeletonMessageJob10metaObjectEv@Base 4:15.12
 _ZNK15MessageComposer18SkeletonMessageJob7messageEv@Base 4:15.12
 _ZNK15MessageComposer18SkeletonMessageJob8infoPartEv@Base 4:15.12
 _ZNK15MessageComposer19PluginEditorManager10metaObjectEv@Base 4:16.04.0
 _ZNK15MessageComposer19PluginEditorManager11pluginsListEv@Base 4:16.04.0
 _ZNK15MessageComposer19SignatureController10metaObjectEv@Base 4:15.12
 _ZNK15MessageComposer20RecipientLineFactory10metaObjectEv@Base 4:15.12
 _ZNK15MessageComposer21PluginEditorInterface10actionTypeEv@Base 4:16.04.0
 _ZNK15MessageComposer21PluginEditorInterface10metaObjectEv@Base 4:16.04.0
 _ZNK15MessageComposer21PluginEditorInterface12parentWidgetEv@Base 4:16.04.0
 _ZNK15MessageComposer21PluginEditorInterface14richTextEditorEv@Base 4:16.04.0
 _ZNK15MessageComposer21PluginEditorInterface17hasToolBarSupportEv@Base 4:16.04.0
 _ZNK15MessageComposer21PluginEditorInterface18hasConfigureDialogEv@Base 4:16.04.0
 _ZNK15MessageComposer21PluginEditorInterface19hasPopupMenuSupportEv@Base 4:16.04.0
 _ZNK15MessageComposer22EmailAddressResolveJob10expandedCcEv@Base 4:15.12
 _ZNK15MessageComposer22EmailAddressResolveJob10expandedToEv@Base 4:15.12
 _ZNK15MessageComposer22EmailAddressResolveJob10metaObjectEv@Base 4:15.12
 _ZNK15MessageComposer22EmailAddressResolveJob11expandedBccEv@Base 4:15.12
 _ZNK15MessageComposer22EmailAddressResolveJob12expandedFromEv@Base 4:15.12
 _ZNK15MessageComposer23MessageComposerSettings10metaObjectEv@Base 4:15.12
 _ZNK15MessageComposer24AttachmentControllerBase10metaObjectEv@Base 4:15.12
 _ZNK15MessageComposer24AttachmentControllerBase14attachOwnVcardEv@Base 4:15.12
 _ZNK15MessageComposer25FollowupReminderCreateJob10metaObjectEv@Base 4:15.12
 _ZNK15MessageComposer26AttachmentFromPublicKeyJob10metaObjectEv@Base 4:15.12
 _ZNK15MessageComposer26AttachmentFromPublicKeyJob11fingerprintEv@Base 4:15.12
 _ZNK15MessageComposer26RichTextComposerSignatures10metaObjectEv@Base 4:15.12
 _ZNK15MessageComposer32FollowUpReminderSelectDateDialog10collectionEv@Base 4:15.12
 _ZNK15MessageComposer32FollowUpReminderSelectDateDialog10metaObjectEv@Base 4:15.12
 _ZNK15MessageComposer32FollowUpReminderSelectDateDialog12selectedDateEv@Base 4:15.12
 _ZNK15MessageComposer33AttachmentVcardFromAddressBookJob10metaObjectEv@Base 4:15.12
 _ZNK15MessageComposer7JobBase10metaObjectEv@Base 4:15.12
 _ZNK15MessageComposer7SignJob10metaObjectEv@Base 4:15.12
 _ZNK15MessageComposer8Composer10globalPartEv@Base 4:15.12
 _ZNK15MessageComposer8Composer10metaObjectEv@Base 4:15.12
 _ZNK15MessageComposer8Composer14resultMessagesEv@Base 4:15.12
 _ZNK15MessageComposer8Composer15attachmentPartsEv@Base 4:15.12
 _ZNK15MessageComposer8Composer8autoSaveEv@Base 4:15.12
 _ZNK15MessageComposer8Composer8finishedEv@Base 4:15.12
 _ZNK15MessageComposer8Composer8infoPartEv@Base 4:15.12
 _ZNK15MessageComposer8Composer8textPartEv@Base 4:15.12
 _ZNK15MessageComposer8InfoPart10metaObjectEv@Base 4:15.12
 _ZNK15MessageComposer8InfoPart10referencesEv@Base 4:15.12
 _ZNK15MessageComposer8InfoPart11transportIdEv@Base 4:15.12
 _ZNK15MessageComposer8InfoPart12extraHeadersEv@Base 4:15.12
 _ZNK15MessageComposer8InfoPart2ccEv@Base 4:15.12
 _ZNK15MessageComposer8InfoPart2toEv@Base 4:15.12
 _ZNK15MessageComposer8InfoPart3bccEv@Base 4:15.12
 _ZNK15MessageComposer8InfoPart3fccEv@Base 4:15.12
 _ZNK15MessageComposer8InfoPart4fromEv@Base 4:15.12
 _ZNK15MessageComposer8InfoPart6urgentEv@Base 4:15.12
 _ZNK15MessageComposer8InfoPart7replyToEv@Base 4:15.12
 _ZNK15MessageComposer8InfoPart7subjectEv@Base 4:15.12
 _ZNK15MessageComposer8InfoPart9inReplyToEv@Base 4:15.12
 _ZNK15MessageComposer8InfoPart9userAgentEv@Base 4:15.12
 _ZNK15MessageComposer8TextPart10isHtmlUsedEv@Base 4:15.12
 _ZNK15MessageComposer8TextPart10metaObjectEv@Base 4:15.12
 _ZNK15MessageComposer8TextPart14cleanPlainTextEv@Base 4:15.12
 _ZNK15MessageComposer8TextPart14embeddedImagesEv@Base 4:15.12
 _ZNK15MessageComposer8TextPart14warnBadCharsetEv@Base 4:15.12
 _ZNK15MessageComposer8TextPart16wrappedPlainTextEv@Base 4:15.12
 _ZNK15MessageComposer8TextPart17hasEmbeddedImagesEv@Base 4:15.12
 _ZNK15MessageComposer8TextPart21isWordWrappingEnabledEv@Base 4:15.12
 _ZNK15MessageComposer8TextPart9cleanHtmlEv@Base 4:15.12
 _ZNK15MessageComposer9Recipient4nameEv@Base 4:15.12
 _ZNK15MessageComposer9Recipient4typeEv@Base 4:15.12
 _ZNK15MessageComposer9Recipient5emailEv@Base 4:15.12
 _ZNK15MessageComposer9Recipient7isEmptyEv@Base 4:15.12
 _ZNK15MessageComposer9Recipient9typeLabelEv@Base 4:15.12
 (optional=templinst)_ZNK7Akonadi4Item11payloadImplIN9KContacts12ContactGroupEEENSt9enable_ifIXntsrNS_8Internal12PayloadTraitIT_EE13isPolymorphicES7_E4typeEv@Base 4:15.12
 (optional=templinst)_ZNK7Akonadi4Item11payloadImplIN9KContacts9AddresseeEEENSt9enable_ifIXntsrNS_8Internal12PayloadTraitIT_EE13isPolymorphicES7_E4typeEv@Base 4:15.12
 (optional=templinst)_ZNSt11__copy_moveILb0ELb0ESt26random_access_iterator_tagE8__copy_mIPN5GpgME3KeyES5_EET0_T_S7_S6_@Base 4:15.12
 (optional=templinst|arch=!arm64 !armel !armhf !hppa !mips !mips64el !mipsel !powerpc !ppc64 !ppc64el !s390x !sparc64)_ZNSt12_Destroy_auxILb0EE9__destroyIPN5GpgME3KeyEEEvT_S5_@Base 4:15.12
 (optional=templinst|arch=!amd64 !arm64 !armel !armhf !hppa !hurd-i386 !i386 !kfreebsd-amd64 !kfreebsd-i386 !mips !mips64el !mipsel !s390x !sparc64)_ZNSt20__copy_move_backwardILb1ELb0ESt26random_access_iterator_tagE13__copy_move_bIPN5GpgME3KeyES5_EET0_T_S7_S6_@Base 4:16.04.1
 (optional=templinst|arch=mips mips64el mipsel)_ZNSt20__uninitialized_copyILb0EE13__uninit_copyIN9__gnu_cxx17__normal_iteratorIPKN5GpgME3KeyESt6vectorIS5_SaIS5_EEEEPS5_EET0_T_SE_SD_@Base 4:16.04.1
 (optional=templinst|arch=arm64 armhf hppa mips mips64el mipsel s390x sparc64)_ZNSt20__uninitialized_copyILb0EE13__uninit_copyISt13move_iteratorIPN5GpgME3KeyEES5_EET0_T_S8_S7_@Base 4:16.04.0
 (optional=templinst)_ZNSt6vectorIN4Kleo17KeyApprovalDialog4ItemESaIS2_EE19_M_emplace_back_auxIIRKS2_EEEvDpOT_@Base 4:15.12
 (optional=templinst)_ZNSt6vectorIN4Kleo17KeyApprovalDialog4ItemESaIS2_EE19_M_emplace_back_auxIJRKS2_EEEvDpOT_@Base 4:15.12
 (optional=templinst)_ZNSt6vectorIN4Kleo17KeyApprovalDialog4ItemESaIS2_EED1Ev@Base 4:15.12
 (optional=templinst)_ZNSt6vectorIN4Kleo17KeyApprovalDialog4ItemESaIS2_EED2Ev@Base 4:15.12
 (optional=templinst)_ZNSt6vectorIN5GpgME3KeyESaIS1_EE15_M_range_insertIN9__gnu_cxx17__normal_iteratorIPKS1_S3_EEEEvNS6_IPS1_S3_EET_SC_St20forward_iterator_tag@Base 4:15.12
 (optional=templinst)_ZNSt6vectorIN5GpgME3KeyESaIS1_EE15_M_range_insertIN9__gnu_cxx17__normal_iteratorIPS1_S3_EEEEvS8_T_S9_St20forward_iterator_tag@Base 4:15.12
 (optional=templinst)_ZNSt6vectorIN5GpgME3KeyESaIS1_EE19_M_emplace_back_auxIIRKS1_EEEvDpOT_@Base 4:15.12
 (optional=templinst)_ZNSt6vectorIN5GpgME3KeyESaIS1_EE19_M_emplace_back_auxIJRKS1_EEEvDpOT_@Base 4:15.12
 (optional=templinst)_ZNSt6vectorIN5GpgME3KeyESaIS1_EE8_M_eraseEN9__gnu_cxx17__normal_iteratorIPS1_S3_EES7_@Base 4:15.12
 (optional=templinst|arch=arm64 armhf hppa hurd-i386 i386 kfreebsd-i386 mips mips64el mipsel powerpc ppc64 ppc64el s390x sparc64)_ZNSt6vectorIN5GpgME3KeyESaIS1_EE9push_backERKS1_@Base 4:16.04.0
 (optional=templinst)_ZNSt6vectorIN5GpgME3KeyESaIS1_EEC1ERKS3_@Base 4:15.12
 (optional=templinst)_ZNSt6vectorIN5GpgME3KeyESaIS1_EEC2ERKS3_@Base 4:15.12
 (optional=templinst)_ZNSt6vectorIN5GpgME3KeyESaIS1_EED1Ev@Base 4:15.12
 (optional=templinst)_ZNSt6vectorIN5GpgME3KeyESaIS1_EED2Ev@Base 4:15.12
 (optional=templinst)_ZNSt6vectorIN5GpgME3KeyESaIS1_EEaSERKS3_@Base 4:15.12
 (optional=templinst)_ZNSt6vectorIN5GpgME6UserIDESaIS1_EE19_M_emplace_back_auxIIRKS1_EEEvDpOT_@Base 4:15.12
 (optional=templinst)_ZNSt6vectorIN5GpgME6UserIDESaIS1_EE19_M_emplace_back_auxIJRKS1_EEEvDpOT_@Base 4:15.12
 (optional=templinst|arch=!arm64 !armel !armhf !hppa !mips !mips64el !mipsel !powerpc !ppc64 !ppc64el !s390x !sparc64|subst)_ZNSt6vectorIN5GpgME6UserIDESaIS1_EE7reserveE{size_t}@Base 4:15.12
 (optional=templinst)_ZNSt6vectorIN5GpgME6UserIDESaIS1_EED1Ev@Base 4:15.12
 (optional=templinst)_ZNSt6vectorIN5GpgME6UserIDESaIS1_EED2Ev@Base 4:15.12
 (optional=templinst)_ZNSt8_Rb_treeI10QByteArrayS0_St9_IdentityIS0_ESt4lessIS0_ESaIS0_EE16_M_insert_uniqueIS0_EESt4pairISt17_Rb_tree_iteratorIS0_EbEOT_@Base 4:15.12
 (optional=templinst)_ZNSt8_Rb_treeI10QByteArrayS0_St9_IdentityIS0_ESt4lessIS0_ESaIS0_EE8_M_eraseEPSt13_Rb_tree_nodeIS0_E@Base 4:15.12
 _ZTIN15MessageComposer10EncryptJobE@Base 4:15.12
 _ZTIN15MessageComposer10GlobalPartE@Base 4:15.12
 _ZTIN15MessageComposer11MainTextJobE@Base 4:15.12
 _ZTIN15MessageComposer11MessagePartE@Base 4:15.12
 _ZTIN15MessageComposer12MultipartJobE@Base 4:15.12
 _ZTIN15MessageComposer12PluginEditorE@Base 4:16.04.0
 _ZTIN15MessageComposer13AkonadiSenderE@Base 4:15.12
 _ZTIN15MessageComposer13AttachmentJobE@Base 4:15.12
 _ZTIN15MessageComposer13SinglepartJobE@Base 4:15.12
 _ZTIN15MessageComposer14ContentJobBaseE@Base 4:15.12
 _ZTIN15MessageComposer14MessageFactoryE@Base 4:15.12
 _ZTIN15MessageComposer14SignEncryptJobE@Base 4:15.12
 _ZTIN15MessageComposer14TransparentJobE@Base 4:15.12
 _ZTIN15MessageComposer15AttachmentModelE@Base 4:15.12
 _ZTIN15MessageComposer16AliasesExpandJobE@Base 4:15.12
 _ZTIN15MessageComposer16ComposerLineEditE@Base 4:15.12
 _ZTIN15MessageComposer16ComposerViewBaseE@Base 4:15.12
 _ZTIN15MessageComposer16RecipientsEditorE@Base 4:15.12
 _ZTIN15MessageComposer17InsertTextFileJobE@Base 4:15.12
 _ZTIN15MessageComposer18ImageScalingWidgetE@Base 4:15.12
 _ZTIN15MessageComposer18RichTextComposerNgE@Base 4:15.12
 _ZTIN15MessageComposer18SkeletonMessageJobE@Base 4:15.12
 _ZTIN15MessageComposer19PluginEditorManagerE@Base 4:16.04.0
 _ZTIN15MessageComposer19SignatureControllerE@Base 4:15.12
 _ZTIN15MessageComposer20RecipientLineFactoryE@Base 4:15.12
 _ZTIN15MessageComposer21PluginEditorInterfaceE@Base 4:16.04.0
 _ZTIN15MessageComposer22EmailAddressResolveJobE@Base 4:15.12
 _ZTIN15MessageComposer23MessageComposerSettingsE@Base 4:15.12
 _ZTIN15MessageComposer24AttachmentControllerBaseE@Base 4:15.12
 _ZTIN15MessageComposer25FollowupReminderCreateJobE@Base 4:15.12
 _ZTIN15MessageComposer26AttachmentFromPublicKeyJobE@Base 4:15.12
 _ZTIN15MessageComposer26RichTextComposerSignaturesE@Base 4:15.12
 _ZTIN15MessageComposer27MessageComposerSettingsBaseE@Base 4:15.12
 _ZTIN15MessageComposer32FollowUpReminderSelectDateDialogE@Base 4:15.12
 _ZTIN15MessageComposer33AttachmentVcardFromAddressBookJobE@Base 4:15.12
 _ZTIN15MessageComposer7JobBaseE@Base 4:15.12
 _ZTIN15MessageComposer7SignJobE@Base 4:15.12
 _ZTIN15MessageComposer8ComposerE@Base 4:15.12
 _ZTIN15MessageComposer8InfoPartE@Base 4:15.12
 _ZTIN15MessageComposer8TextPartE@Base 4:15.12
 _ZTIN15MessageComposer9RecipientE@Base 4:15.12
 _ZTIN4KPIM19MultiplyingLineDataE@Base 4:15.12
 _ZTSN15MessageComposer10EncryptJobE@Base 4:15.12
 _ZTSN15MessageComposer10GlobalPartE@Base 4:15.12
 _ZTSN15MessageComposer11MainTextJobE@Base 4:15.12
 _ZTSN15MessageComposer11MessagePartE@Base 4:15.12
 _ZTSN15MessageComposer12MultipartJobE@Base 4:15.12
 _ZTSN15MessageComposer12PluginEditorE@Base 4:16.04.0
 _ZTSN15MessageComposer13AkonadiSenderE@Base 4:15.12
 _ZTSN15MessageComposer13AttachmentJobE@Base 4:15.12
 _ZTSN15MessageComposer13SinglepartJobE@Base 4:15.12
 _ZTSN15MessageComposer14ContentJobBaseE@Base 4:15.12
 _ZTSN15MessageComposer14MessageFactoryE@Base 4:15.12
 _ZTSN15MessageComposer14SignEncryptJobE@Base 4:15.12
 _ZTSN15MessageComposer14TransparentJobE@Base 4:15.12
 _ZTSN15MessageComposer15AttachmentModelE@Base 4:15.12
 _ZTSN15MessageComposer16AliasesExpandJobE@Base 4:15.12
 _ZTSN15MessageComposer16ComposerLineEditE@Base 4:15.12
 _ZTSN15MessageComposer16ComposerViewBaseE@Base 4:15.12
 _ZTSN15MessageComposer16RecipientsEditorE@Base 4:15.12
 _ZTSN15MessageComposer17InsertTextFileJobE@Base 4:15.12
 _ZTSN15MessageComposer18ImageScalingWidgetE@Base 4:15.12
 _ZTSN15MessageComposer18RichTextComposerNgE@Base 4:15.12
 _ZTSN15MessageComposer18SkeletonMessageJobE@Base 4:15.12
 _ZTSN15MessageComposer19PluginEditorManagerE@Base 4:16.04.0
 _ZTSN15MessageComposer19SignatureControllerE@Base 4:15.12
 _ZTSN15MessageComposer20RecipientLineFactoryE@Base 4:15.12
 _ZTSN15MessageComposer21PluginEditorInterfaceE@Base 4:16.04.0
 _ZTSN15MessageComposer22EmailAddressResolveJobE@Base 4:15.12
 _ZTSN15MessageComposer23MessageComposerSettingsE@Base 4:15.12
 _ZTSN15MessageComposer24AttachmentControllerBaseE@Base 4:15.12
 _ZTSN15MessageComposer25FollowupReminderCreateJobE@Base 4:15.12
 _ZTSN15MessageComposer26AttachmentFromPublicKeyJobE@Base 4:15.12
 _ZTSN15MessageComposer26RichTextComposerSignaturesE@Base 4:15.12
 _ZTSN15MessageComposer27MessageComposerSettingsBaseE@Base 4:15.12
 _ZTSN15MessageComposer32FollowUpReminderSelectDateDialogE@Base 4:15.12
 _ZTSN15MessageComposer33AttachmentVcardFromAddressBookJobE@Base 4:15.12
 _ZTSN15MessageComposer7JobBaseE@Base 4:15.12
 _ZTSN15MessageComposer7SignJobE@Base 4:15.12
 _ZTSN15MessageComposer8ComposerE@Base 4:15.12
 _ZTSN15MessageComposer8InfoPartE@Base 4:15.12
 _ZTSN15MessageComposer8TextPartE@Base 4:15.12
 _ZTSN15MessageComposer9RecipientE@Base 4:15.12
 _ZTSN4KPIM19MultiplyingLineDataE@Base 4:15.12
 _ZTVN15MessageComposer10EncryptJobE@Base 4:15.12
 _ZTVN15MessageComposer10GlobalPartE@Base 4:15.12
 _ZTVN15MessageComposer11MainTextJobE@Base 4:15.12
 _ZTVN15MessageComposer11MessagePartE@Base 4:15.12
 _ZTVN15MessageComposer12MultipartJobE@Base 4:15.12
 _ZTVN15MessageComposer12PluginEditorE@Base 4:16.04.0
 _ZTVN15MessageComposer13AkonadiSenderE@Base 4:15.12
 _ZTVN15MessageComposer13AttachmentJobE@Base 4:15.12
 _ZTVN15MessageComposer13SinglepartJobE@Base 4:15.12
 _ZTVN15MessageComposer14ContentJobBaseE@Base 4:15.12
 _ZTVN15MessageComposer14MessageFactoryE@Base 4:15.12
 _ZTVN15MessageComposer14SignEncryptJobE@Base 4:15.12
 _ZTVN15MessageComposer14TransparentJobE@Base 4:15.12
 _ZTVN15MessageComposer15AttachmentModelE@Base 4:15.12
 _ZTVN15MessageComposer16AliasesExpandJobE@Base 4:15.12
 _ZTVN15MessageComposer16ComposerLineEditE@Base 4:15.12
 _ZTVN15MessageComposer16ComposerViewBaseE@Base 4:15.12
 _ZTVN15MessageComposer16RecipientsEditorE@Base 4:15.12
 _ZTVN15MessageComposer17InsertTextFileJobE@Base 4:15.12
 _ZTVN15MessageComposer18ImageScalingWidgetE@Base 4:15.12
 _ZTVN15MessageComposer18RichTextComposerNgE@Base 4:15.12
 _ZTVN15MessageComposer18SkeletonMessageJobE@Base 4:15.12
 _ZTVN15MessageComposer19PluginEditorManagerE@Base 4:16.04.0
 _ZTVN15MessageComposer19SignatureControllerE@Base 4:15.12
 _ZTVN15MessageComposer20RecipientLineFactoryE@Base 4:15.12
 _ZTVN15MessageComposer21PluginEditorInterfaceE@Base 4:16.04.0
 _ZTVN15MessageComposer22EmailAddressResolveJobE@Base 4:15.12
 _ZTVN15MessageComposer23MessageComposerSettingsE@Base 4:15.12
 _ZTVN15MessageComposer24AttachmentControllerBaseE@Base 4:15.12
 _ZTVN15MessageComposer25FollowupReminderCreateJobE@Base 4:15.12
 _ZTVN15MessageComposer26AttachmentFromPublicKeyJobE@Base 4:15.12
 _ZTVN15MessageComposer26RichTextComposerSignaturesE@Base 4:15.12
 _ZTVN15MessageComposer27MessageComposerSettingsBaseE@Base 4:15.12
 _ZTVN15MessageComposer32FollowUpReminderSelectDateDialogE@Base 4:15.12
 _ZTVN15MessageComposer33AttachmentVcardFromAddressBookJobE@Base 4:15.12
 _ZTVN15MessageComposer7JobBaseE@Base 4:15.12
 _ZTVN15MessageComposer7SignJobE@Base 4:15.12
 _ZTVN15MessageComposer8ComposerE@Base 4:15.12
 _ZTVN15MessageComposer8InfoPartE@Base 4:15.12
 _ZTVN15MessageComposer8TextPartE@Base 4:15.12
 _ZTVN15MessageComposer9RecipientE@Base 4:15.12
 _ZZZN15KMimeTypeTrader16preferredServiceERK7QStringS2_Ed_NKUlvE_clEvE15qstring_literal@Base 4:15.12
 _ZZZN15MessageComposer27MessageComposerSettingsBase14setWriteFormatERK7QStringENKUlvE_clEvE15qstring_literal@Base 4:15.12
 _ZZZN15MessageComposer27MessageComposerSettingsBase15setMaximumWidthEiENKUlvE_clEvE15qstring_literal@Base 4:15.12
 _ZZZN15MessageComposer27MessageComposerSettingsBase15setMinimumWidthEiENKUlvE_clEvE15qstring_literal@Base 4:15.12
 _ZZZN15MessageComposer27MessageComposerSettingsBase16setMaximumHeightEiENKUlvE_clEvE15qstring_literal@Base 4:15.12
 _ZZZN15MessageComposer27MessageComposerSettingsBase16setMinimumHeightEiENKUlvE_clEvE15qstring_literal@Base 4:15.12
 _ZZZN15MessageComposer27MessageComposerSettingsBase17setKeepImageRatioEbENKUlvE_clEvE15qstring_literal@Base 4:15.12
 _ZZZN15MessageComposer27MessageComposerSettingsBase19setFilterSourceTypeEiENKUlvE_clEvE15qstring_literal@Base 4:15.12
 _ZZZN15MessageComposer27MessageComposerSettingsBase20setAskBeforeResizingEbENKUlvE_clEvE15qstring_literal@Base 4:15.12
 _ZZZN15MessageComposer27MessageComposerSettingsBase21setCustomMaximumWidthEiENKUlvE_clEvE15qstring_literal@Base 4:15.12
 _ZZZN15MessageComposer27MessageComposerSettingsBase21setCustomMinimumWidthEiENKUlvE_clEvE15qstring_literal@Base 4:15.12
 _ZZZN15MessageComposer27MessageComposerSettingsBase21setSkipImageLowerSizeEiENKUlvE_clEvE15qstring_literal@Base 4:15.12
 _ZZZN15MessageComposer27MessageComposerSettingsBase22setCustomMaximumHeightEiENKUlvE_clEvE15qstring_literal@Base 4:15.12
 _ZZZN15MessageComposer27MessageComposerSettingsBase22setCustomMinimumHeightEiENKUlvE_clEvE15qstring_literal@Base 4:15.12
 _ZZZN15MessageComposer27MessageComposerSettingsBase22setFilterRecipientTypeEiENKUlvE_clEvE15qstring_literal@Base 4:15.12
 _ZZZN15MessageComposer27MessageComposerSettingsBase22setFilterSourcePatternERK7QStringENKUlvE_clEvE15qstring_literal@Base 4:15.12
 _ZZZN15MessageComposer27MessageComposerSettingsBase22setRenameResizedImagesEbENKUlvE_clEvE15qstring_literal@Base 4:15.12
 _ZZZN15MessageComposer27MessageComposerSettingsBase22setResizeEmailsPatternERK7QStringENKUlvE_clEvE15qstring_literal@Base 4:15.12
 _ZZZN15MessageComposer27MessageComposerSettingsBase23setReduceImageToMaximumEbENKUlvE_clEvE15qstring_literal@Base 4:15.12
 _ZZZN15MessageComposer27MessageComposerSettingsBase24setEnlargeImageToMinimumEbENKUlvE_clEvE15qstring_literal@Base 4:15.12
 _ZZZN15MessageComposer27MessageComposerSettingsBase25setAutoResizeImageEnabledEbENKUlvE_clEvE15qstring_literal@Base 4:15.12
 _ZZZN15MessageComposer27MessageComposerSettingsBase26setResizeImagesWithFormatsEbENKUlvE_clEvE15qstring_literal@Base 4:15.12
 _ZZZN15MessageComposer27MessageComposerSettingsBase27setDoNotResizeEmailsPatternERK7QStringENKUlvE_clEvE15qstring_literal@Base 4:15.12
 _ZZZN15MessageComposer27MessageComposerSettingsBase28setSkipImageLowerSizeEnabledEbENKUlvE_clEvE15qstring_literal@Base 4:15.12
 _ZZZN15MessageComposer27MessageComposerSettingsBase29setRenameResizedImagesPatternERK7QStringENKUlvE_clEvE15qstring_literal@Base 4:15.12
 _ZZZN15MessageComposer27MessageComposerSettingsBase30setResizeImagesWithFormatsTypeERK7QStringENKUlvE_clEvE15qstring_literal@Base 4:15.12
 (c++)"non-virtual thunk to MessageComposer::AkonadiSender::doSend(QSharedPointer<KMime::Message> const&, short)@Base" 4:15.12
 (c++)"non-virtual thunk to MessageComposer::AkonadiSender::doSendQueued(int)@Base" 4:15.12
 (c++)"non-virtual thunk to MessageComposer::AkonadiSender::~AkonadiSender()@Base" 4:15.12
 (c++)"non-virtual thunk to MessageComposer::ComposerLineEdit::~ComposerLineEdit()@Base" 4:15.12
 (c++)"non-virtual thunk to MessageComposer::EncryptJob::encryptionKeys() const@Base" 4:15.12
 (c++)"non-virtual thunk to MessageComposer::EncryptJob::recipients() const@Base" 4:15.12
 (c++)"non-virtual thunk to MessageComposer::EncryptJob::setEncryptionKeys(std::vector<GpgME::Key, std::allocator<GpgME::Key> > const&)@Base" 4:15.12
 (c++)"non-virtual thunk to MessageComposer::EncryptJob::setRecipients(QStringList const&)@Base" 4:15.12
 (c++)"non-virtual thunk to MessageComposer::EncryptJob::~EncryptJob()@Base" 4:15.12
 (c++)"non-virtual thunk to MessageComposer::FollowUpReminderSelectDateDialog::~FollowUpReminderSelectDateDialog()@Base" 4:15.12
 (c++)"non-virtual thunk to MessageComposer::ImageScalingWidget::~ImageScalingWidget()@Base" 4:15.12
 (c++)"non-virtual thunk to MessageComposer::RecipientsEditor::~RecipientsEditor()@Base" 4:15.12
 (c++)"non-virtual thunk to MessageComposer::RichTextComposerNg::~RichTextComposerNg()@Base" 4:15.12
 (c++)"non-virtual thunk to MessageComposer::SignEncryptJob::encryptionKeys() const@Base" 4:15.12
 (c++)"non-virtual thunk to MessageComposer::SignEncryptJob::recipients() const@Base" 4:15.12
 (c++)"non-virtual thunk to MessageComposer::SignEncryptJob::setEncryptionKeys(std::vector<GpgME::Key, std::allocator<GpgME::Key> > const&)@Base" 4:15.12
 (c++)"non-virtual thunk to MessageComposer::SignEncryptJob::setRecipients(QStringList const&)@Base" 4:15.12
 (c++)"non-virtual thunk to MessageComposer::SignEncryptJob::~SignEncryptJob()@Base" 4:15.12
